(lp0
(S'genre'
p1
S'Sci-Fi'
p2
tp3
a(g1
S'Crime'
p4
tp5
a(g1
S'Romance'
p6
tp7
a(g1
S'Animation'
p8
tp9
a(g1
S'Music'
p10
tp11
a(g1
S'Adult'
p12
tp13
a(g1
S'Comedy'
p14
tp15
a(g1
S'War'
p16
tp17
a(g1
S'Horror'
p18
tp19
a(g1
S'Film-Noir'
p20
tp21
a(g1
S'Western'
p22
tp23
a(g1
S'News'
p24
tp25
a(g1
S'Reality-TV'
p26
tp27
a(g1
S'Thriller'
p28
tp29
a(g1
S'Adventure'
p30
tp31
a(g1
S'Mystery'
p32
tp33
a(g1
S'Short'
p34
tp35
a(g1
S'Talk-Show'
p36
tp37
a(g1
S'Drama'
p38
tp39
a(g1
S'Action'
p40
tp41
a(g1
S'Documentary'
p42
tp43
a(g1
S'Musical'
p44
tp45
a(g1
S'History'
p46
tp47
a(g1
S'Family'
p48
tp49
a(g1
S'Fantasy'
p50
tp51
a(g1
S'Game-Show'
p52
tp53
a(g1
S'Sport'
p54
tp55
a(g1
S'Biography'
p56
tp57
a(S'actor'
p58
S'Samuel L. Jackson'
p59
tp60
a(g58
S'Harrison Ford'
p61
tp62
a(g58
S'Tom Hanks'
p63
tp64
a(g58
S'Morgan Freeman'
p65
tp66
a(g58
S'"Robert Downey'
p67
tp68
a(g58
S'Eddie Murphy'
p69
tp70
a(g58
S'Tom Cruise'
p71
tp72
a(g58
S'Stanley Tucci'
p73
tp74
a(g58
S'Scarlett Johansson'
p75
tp76
a(g58
S'Ian McKellen'
p77
tp78
a(g58
S'Johnny Depp'
p79
tp80
a(g58
S'Anthony Daniels'
p81
tp82
a(g58
S'Michael Caine'
p83
tp84
a(g58
S'Gary Oldman'
p85
tp86
a(g58
S'Robin Williams'
p87
tp88
a(g58
S'Robert DeNiro'
p89
tp90
a(g58
S'Emma Watson'
p91
tp92
a(g58
S'Will Smith'
p93
tp94
a(g58
S'Bruce Willis'
p95
tp96
a(g58
S'Stellan Skarsgard'
p97
tp98
a(g58
S'Matt Damon'
p99
tp100
a(g58
S'Cate Blanchett'
p101
tp102
a(g58
S'Andy Serkis'
p103
tp104
a(g58
S'Cameron Diaz'
p105
tp106
a(g58
S'Woody Harrelson'
p107
tp108
a(g58
S'Orlando Bloom'
p109
tp110
a(g58
S'Steve Carell'
p111
tp112
a(g58
S'Idris Elba'
p113
tp114
a(g58
S'Liam Neeson'
p115
tp116
a(g58
S'Bradley Cooper'
p117
tp118
a(g58
S'Ralph Fiennes'
p119
tp120
a(g58
S'Don Cheadle'
p121
tp122
a(g58
S'Julia Roberts'
p123
tp124
a(g58
S'Owen Wilson'
p125
tp126
a(g58
S'Mark Wahlberg'
p127
tp128
a(g58
S'Ben Stiller'
p129
tp130
a(g58
S'Helena Bonham Carter'
p131
tp132
a(g58
S'Vin Diesel'
p133
tp134
a(g58
S'Elizabeth Banks'
p135
tp136
a(g58
S'Dwayne Johnson'
p137
tp138
a(g58
S'Brad Pitt'
p139
tp140
a(g58
S'Tommy Lee Jones'
p141
tp142
a(g58
S'Adam Sandler'
p143
tp144
a(g58
S'Zoe Saldana'
p145
tp146
a(g58
S'Jeremy Renner'
p147
tp148
a(g58
S'Daniel Radcliffe'
p149
tp150
a(g58
S'Jonah Hill'
p151
tp152
a(g58
S'Simon Pegg'
p153
tp154
a(g58
S'Ewan McGregor'
p155
tp156
a(g58
S'Tyrese Gibson'
p157
tp158
a(g58
S'Jim Carrey'
p159
tp160
a(g58
S'Dustin Hoffman'
p161
tp162
a(g58
S'Leonardo DiCaprio'
p163
tp164
a(g58
S'Hugh Jackman'
p165
tp166
a(g58
S'Michael Keaton'
p167
tp168
a(g58
S'Ben Affleck'
p169
tp170
a(g58
S'Jennifer Lawrence'
p171
tp172
a(g58
S'Chris Evans'
p173
tp174
a(g58
S'Philip Seymour Hoffman'
p175
tp176
a(g58
S'Sandra Bullock'
p177
tp178
a(g58
S'Anthony Hopkins'
p179
tp180
a(g58
S'Sylvester Stallone'
p181
tp182
a(g58
S'Alec Baldwin'
p183
tp184
a(g58
S'Anne Hathaway'
p185
tp186
a(g58
S'Laurence Fishburne'
p187
tp188
a(g58
S'Nicolas Cage'
p189
tp190
a(g58
S'John Travolta'
p191
tp192
a(g58
S'Denzel Washington'
p193
tp194
a(g58
S'Rupert Grint'
p195
tp196
a(g58
S'Antonio Banderas'
p197
tp198
a(g58
S'Michelle Rodriguez'
p199
tp200
a(g58
S'Kathy Bates'
p201
tp202
a(g58
S'Amy Adams'
p203
tp204
a(g58
S'Chris Hemsworth'
p205
tp206
a(g58
S'Sigourney Weaver'
p207
tp208
a(g58
S'Will Ferrell'
p209
tp210
a(g58
S'Jon Voight'
p211
tp212
a(g58
S'James Franco'
p213
tp214
a(g58
S'Carrie Fisher'
p215
tp216
a(g58
S'Karl Urban'
p217
tp218
a(g58
S'John Goodman'
p219
tp220
a(g58
S'Christian Bale'
p221
tp222
a(g58
S'Mike Myers'
p223
tp224
a(g58
S'Seth Rogen'
p225
tp226
a(g58
S'Kurt Russell'
p227
tp228
a(g58
S'Mark Ruffalo'
p229
tp230
a(g58
S'Mel Gibson'
p231
tp232
a(g58
S'Hugo Weaving'
p233
tp234
a(g58
S'Kristen Wiig'
p235
tp236
a(g58
S'Angelina Jolie'
p237
tp238
a(g58
S'Mark Hamill'
p239
tp240
a(g58
S'Alan Tudyk'
p241
tp242
a(g58
S'Jamie Foxx'
p243
tp244
a(g58
S'Shia LaBeouf'
p245
tp246
a(g58
S'Forest Whitaker'
p247
tp248
a(g58
S'Josh Hutcherson'
p249
tp250
a(g58
S'Kevin Costner'
p251
tp252
a(g58
S'Christopher Walken'
p253
tp254
a(g58
S'Chris Pratt'
p255
tp256
a(g58
S'Julianne Moore'
p257
tp258
a(g58
S'George Clooney'
p259
tp260
a(g58
S'Natalie Portman'
p261
tp262
a(g58
S'Sally Field'
p263
tp264
a(g58
S'Ben Kingsley'
p265
tp266
a(g58
S'Channing Tatum'
p267
tp268
a(g58
S'Bill Murray'
p269
tp270
a(g58
S'Queen Latifah'
p271
tp272
a(g58
S'Meryl Streep'
p273
tp274
a(g58
S'Marisa Tomei'
p275
tp276
a(g58
S'Jeffrey Wright'
p277
tp278
a(g58
S'Peter Mayhew'
p279
tp280
a(g58
S'Diane Lane'
p281
tp282
a(g58
S'Steve Coogan'
p283
tp284
a(g58
S'Halle Berry'
p285
tp286
a(g58
S'John Leguizamo'
p287
tp288
a(g58
S'John C. Reilly'
p289
tp290
a(g58
S'Keanu Reeves'
p291
tp292
a(g58
S'Kirsten Dunst'
p293
tp294
a(g58
S'Willem Dafoe'
p295
tp296
a(g58
S'Judi Dench'
p297
tp298
a(g58
S'Giovanni Ribisi'
p299
tp300
a(g58
S'Jada Pinkett-Smith'
p301
tp302
a(g58
S'Matthew McConaughey'
p303
tp304
a(g58
S'Paul Giamatti'
p305
tp306
a(g58
S'Jason Bateman'
p307
tp308
a(g58
S'Elijah Wood'
p309
tp310
a(g58
S'Arnold Schwarzenegger'
p311
tp312
a(g58
S'Anthony Mackie'
p313
tp314
a(g58
S'James Marsden'
p315
tp316
a(g58
S'Brendan Gleeson'
p317
tp318
a(g58
S'Gwyneth Paltrow'
p319
tp320
a(g58
S'Paul Rudd'
p321
tp322
a(g58
S'Danny DeVito'
p323
tp324
a(g58
S'Kristen Stewart'
p325
tp326
a(g58
S'Robert Duvall'
p327
tp328
a(g58
S'Russell Crowe'
p329
tp330
a(g58
S'Jack Nicholson'
p331
tp332
a(g58
S'Ed Harris'
p333
tp334
a(g58
S'Liam Hemsworth'
p335
tp336
a(g58
S'Steve Martin'
p337
tp338
a(g58
S'Jeff Bridges'
p339
tp340
a(g58
S'Vince Vaughn'
p341
tp342
a(g58
S'Alan Rickman'
p343
tp344
a(g58
S'Michael Douglas'
p345
tp346
a(g58
S'Brian Cox'
p347
tp348
a(g58
S'Jeff Goldblum'
p349
tp350
a(g58
S'Gal Gadot'
p351
tp352
a(g58
S'Tim Allen'
p353
tp354
a(g58
S'Benedict Cumberbatch'
p355
tp356
a(g58
S'Ryan Reynolds'
p357
tp358
a(g58
S'Dennis Quaid'
p359
tp360
a(g58
S'Chris Pine'
p361
tp362
a(g58
S'Robert Pattinson'
p363
tp364
a(g58
S'Bonnie Hunt'
p365
tp366
a(g58
S'Jackie Chan'
p367
tp368
a(g58
S'Nicole Kidman'
p369
tp370
a(g58
S'Billy Burke'
p371
tp372
a(g58
S'Geoffrey Rush'
p373
tp374
a(g58
S'Paul Bettany'
p375
tp376
a(g58
S'Clint Eastwood'
p377
tp378
a(g58
S'Jon Favreau'
p379
tp380
a(g58
S'Jude Law'
p381
tp382
a(g58
S'Chris Cooper'
p383
tp384
a(g58
S'Christopher Lee'
p385
tp386
a(g58
S'Charlize Theron'
p387
tp388
a(g58
S'Tom Hiddleston'
p389
tp390
a(g58
S'Paul Walker'
p391
tp392
a(g58
S'Robert Redford'
p393
tp394
a(g58
S'Sean Bean'
p395
tp396
a(g58
S'Jennifer Aniston'
p397
tp398
a(g58
S'Rachel McAdams'
p399
tp400
a(g58
S'Jack Black'
p401
tp402
a(g58
S'Josh Brolin'
p403
tp404
a(g58
S'Drew Barrymore'
p405
tp406
a(g58
S'Clark Gregg'
p407
tp408
a(g58
S'Michael Sheen'
p409
tp410
a(g58
S'Chris Rock'
p411
tp412
a(g58
S'Bryce Dallas Howard'
p413
tp414
a(g58
S'Daniel Craig'
p415
tp416
a(g58
S'Joseph Gordon-Levitt'
p417
tp418
a(g58
S'Jonathan Pryce'
p419
tp420
a(g58
S'Danny Glover'
p421
tp422
a(g58
S'Keira Knightley'
p423
tp424
a(g58
S'Naomie Harris'
p425
tp426
a(g58
S'Emma Stone'
p427
tp428
a(g58
S'Emma Thompson'
p429
tp430
a(g58
S'Ice Cube'
p431
tp432
a(g58
S'Reese Witherspoon'
p433
tp434
a(g58
S'Sean Connery'
p435
tp436
a(g58
S'Bill Paxton'
p437
tp438
a(g58
S'John Malkovich'
p439
tp440
a(g58
S'Helen Mirren'
p441
tp442
a(g58
S'Liv Tyler'
p443
tp444
a(g58
S'Zach Galifianakis'
p445
tp446
a(g58
S'Justin Long'
p447
tp448
a(g58
S'Tobey Maguire'
p449
tp450
a(g58
S'Michelle Pfeiffer'
p451
tp452
a(g58
S'Patrick Stewart'
p453
tp454
a(g58
S'Viggo Mortensen'
p455
tp456
a(g58
S'Kevin Spacey'
p457
tp458
a(g58
S'Rene Russo'
p459
tp460
a(g58
S'Kevin Bacon'
p461
tp462
a(g58
S'Kevin Hart'
p463
tp464
a(g58
S'Anna Faris'
p465
tp466
a(g58
S'Kate Winslet'
p467
tp468
a(g58
S'Luke Evans'
p469
tp470
a(g58
S'Cedric the Entertainer'
p471
tp472
a(g58
S'Jason Statham'
p473
tp474
a(g58
S'Kevin Kline'
p475
tp476
a(g58
S"Chris 'Ludacris' Bridges"
p477
tp478
a(g58
S'Susan Sarandon'
p479
tp480
a(g58
S'Pierce Brosnan'
p481
tp482
a(g58
S'Djimon Hounsou'
p483
tp484
a(g58
S'Kellan Lutz'
p485
tp486
a(g58
S'Taylor Lautner'
p487
tp488
a(g58
S'Ian McDiarmid'
p489
tp490
a(g58
S'Leslie Mann'
p491
tp492
a(g58
S'Josh Gad'
p493
tp494
a(g58
S'Josh Duhamel'
p495
tp496
a(g58
S'Tom Hardy'
p497
tp498
a(g58
S"Lupita Nyong'o"
p499
tp500
a(g58
S'Al Pacino'
p501
tp502
a(g58
S'Rose Byrne'
p503
tp504
a(g58
S'Aaron Eckhart'
p505
tp506
a(g58
S'Jeremy Irons'
p507
tp508
a(g58
S'Gerard Butler'
p509
tp510
a(g58
S'Martin Freeman'
p511
tp512
a(g58
S'Famke Janssen'
p513
tp514
a(g58
S'Carla Gugino'
p515
tp516
a(g58
S'Richard Gere'
p517
tp518
a(g58
S'Dakota Fanning'
p519
tp520
a(g58
S'Terrence Howard'
p521
tp522
a(g58
S'Kevin James'
p523
tp524
a(g58
S'Ashley Greene'
p525
tp526
a(g58
S'Colin Farrell'
p527
tp528
a(g58
S'Glenn Close'
p529
tp530
a(g58
S'William Hurt'
p531
tp532
a(g58
S'Billy Crystal'
p533
tp534
a(g58
S'Matthew Broderick'
p535
tp536
a(g58
S'Oscar Isaac'
p537
tp538
a(g58
S'Frances McDormand'
p539
tp540
a(g58
S'Sacha Baron Cohen'
p541
tp542
a(g58
S'"Cuba Gooding'
p543
tp544
a(g58
S'Sam Worthington'
p545
tp546
a(g58
S'Jena Malone'
p547
tp548
a(g58
S'Viola Davis'
p549
tp550
a(g58
S'Ian Holm'
p551
tp552
a(g58
S'Frank Grillo'
p553
tp554
a(g58
S'Jackson Rathbone'
p555
tp556
a(g58
S'Cary Elwes'
p557
tp558
a(g58
S'Common'
p559
tp560
a(g58
S'Martin Lawrence'
p561
tp562
a(g58
S'Michael Fassbender'
p563
tp564
a(g58
S'Tilda Swinton'
p565
tp566
a(g58
S'Jennifer Lopez'
p567
tp568
a(g58
S'William H. Macy'
p569
tp570
a(g58
S'Diane Keaton'
p571
tp572
a(g58
S'Mark Strong'
p573
tp574
a(g58
S'Catherine Zeta-Jones'
p575
tp576
a(g58
S'Rachel Weisz'
p577
tp578
a(g58
S'Colin Firth'
p579
tp580
a(g58
S'Jesse Eisenberg'
p581
tp582
a(g58
S'Irrfan Khan'
p583
tp584
a(g58
S'Guy Pearce'
p585
tp586
a(g58
S'Albert Brooks'
p587
tp588
a(g58
S'Tom Wilkinson'
p589
tp590
a(g58
S'Ed Helms'
p591
tp592
a(g58
S'Michael Clarke Duncan'
p593
tp594
a(g58
S'Renee Zellweger'
p595
tp596
a(g58
S'Russell Brand'
p597
tp598
a(g58
S'Sebastian Stan'
p599
tp600
a(g58
S'Christopher Plummer'
p601
tp602
a(g58
S'Marion Cotillard'
p603
tp604
a(g58
S'Bryan Cranston'
p605
tp606
a(g58
S'Alfred Molina'
p607
tp608
a(g58
S'Mads Mikkelsen'
p609
tp610
a(g58
S'Jack Davenport'
p611
tp612
a(g58
S'Ray Stevenson'
p613
tp614
a(g58
S'Mila Kunis'
p615
tp616
a(g58
S'Ewen Bremner'
p617
tp618
a(g58
S'Jessica Chastain'
p619
tp620
a(g58
S'Jordana Brewster'
p621
tp622
a(g58
S'John Cusack'
p623
tp624
a(g58
S'Liev Schreiber'
p625
tp626
a(g58
S'Greg Kinnear'
p627
tp628
a(g58
S'Thomas Haden Church'
p629
tp630
a(g58
S'Meg Ryan'
p631
tp632
a(g58
S'Isla Fisher'
p633
tp634
a(g58
S'Justin Bartha'
p635
tp636
a(g58
S'James McAvoy'
p637
tp638
a(g58
S'Holly Hunter'
p639
tp640
a(g58
S'Chiwetel Ejiofor'
p641
tp642
a(g58
S'Elizabeth Olsen'
p643
tp644
a(g58
S'Craig T. Nelson'
p645
tp646
a(g58
S'Christopher Mintz-Plasse'
p647
tp648
a(g58
S'Allison Janney'
p649
tp650
a(g58
S'Christina Applegate'
p651
tp652
a(g58
S'Jim Broadbent'
p653
tp654
a(g58
S'Melissa McCarthy'
p655
tp656
a(g58
S'Rosario Dawson'
p657
tp658
a(g58
S'Brendan Fraser'
p659
tp660
a(g58
S'Abigail Breslin'
p661
tp662
a(g58
S'Megan Fox'
p663
tp664
a(g58
S'Tyler Perry'
p665
tp666
a(g58
S'Taraji P. Henson'
p667
tp668
a(g58
S'Salma Hayek'
p669
tp670
a(g58
S'Anton Yelchin'
p671
tp672
a(g58
S'Kiefer Sutherland'
p673
tp674
a(g58
S'Kim Basinger'
p675
tp676
a(g58
S'Paul Newman'
p677
tp678
a(g58
S'Omar Sy'
p679
tp680
a(g58
S'Jay Baruchel'
p681
tp682
a(g58
S'Edward Norton'
p683
tp684
a(g58
S'Henry Cavill'
p685
tp686
a(g58
S'Sam Rockwell'
p687
tp688
a(g58
S'Eric Bana'
p689
tp690
a(g58
S'Emily Blunt'
p691
tp692
a(g58
S'Jamie Lee Curtis'
p693
tp694
a(g58
S'Regina Hall'
p695
tp696
a(g58
S'Billy Bob Thornton'
p697
tp698
a(g58
S'Jodie Foster'
p699
tp700
a(g58
S'Kate Beckinsale'
p701
tp702
a(g58
S'Ashley Judd'
p703
tp704
a(g58
S'Val Kilmer'
p705
tp706
a(g58
S'Julia Stiles'
p707
tp708
a(g58
S'Lucy Liu'
p709
tp710
a(g58
S'Octavia Spencer'
p711
tp712
a(g58
S'Monica Bellucci'
p713
tp714
a(g58
S'Demi Moore'
p715
tp716
a(g58
S'Daisy Ridley'
p717
tp718
a(g58
S'Zac Efron'
p719
tp720
a(g58
S'Joaquin Phoenix'
p721
tp722
a(g58
S'Kristen Bell'
p723
tp724
a(g58
S'Jennifer Garner'
p725
tp726
a(g58
S'Anna Paquin'
p727
tp728
a(g58
S'Helen Hunt'
p729
tp730
a(g58
S'Lenny Kravitz'
p731
tp732
a(g58
S'Barbra Streisand'
p733
tp734
a(g58
S'Sarah Jessica Parker'
p735
tp736
a(g58
S'Bernie Mac'
p737
tp738
a(g58
S'Maria Bello'
p739
tp740
a(g58
S'Jai Courtney'
p741
tp742
a(g58
S'Laura Linney'
p743
tp744
a(g58
S'Maggie Gyllenhaal'
p745
tp746
a(g58
S'Wesley Snipes'
p747
tp748
a(g58
S'John Boyega'
p749
tp750
a(g58
S'Toni Collette'
p751
tp752
a(g58
S'Christoph Waltz'
p753
tp754
a(g58
S'Anna Kendrick'
p755
tp756
a(g58
S'Seth Green'
p757
tp758
a(g58
S'Amanda Seyfried'
p759
tp760
a(g58
S'Ashton Kutcher'
p761
tp762
a(g58
S'Heath Ledger'
p763
tp764
a(g58
S'Jessica Alba'
p765
tp766
a(g58
S'Zooey Deschanel'
p767
tp768
a(g58
S'Naomi Watts'
p769
tp770
a(g58
S'Randy Quaid'
p771
tp772
a(g58
S'Benicio Del Toro'
p773
tp774
a(g58
S'Jennifer Connelly'
p775
tp776
a(g58
S'Ron Perlman'
p777
tp778
a(g58
S'Billy Crudup'
p779
tp780
a(g58
S'Jake Gyllenhaal'
p781
tp782
a(g58
S'Johnny Knoxville'
p783
tp784
a(g58
S'Hugh Grant'
p785
tp786
a(g58
S'Jason Segel'
p787
tp788
a(g58
S'Julie Andrews'
p789
tp790
a(g58
S'Winona Ryder'
p791
tp792
a(g58
S'Joel David Moore'
p793
tp794
a(g58
S'Ellen DeGeneres'
p795
tp796
a(g58
S'Casey Affleck'
p797
tp798
a(g58
S'Rob Riggle'
p799
tp800
a(g58
S'Dave Franco'
p801
tp802
a(g58
S'Charlie Sheen'
p803
tp804
a(g58
S'Penelope Cruz'
p805
tp806
a(g58
S'Thandie Newton'
p807
tp808
a(g58
S'Kenneth Branagh'
p809
tp810
a(g58
S'Cillian Murphy'
p811
tp812
a(g58
S'Jason Sudeikis'
p813
tp814
a(g58
S'Rob Schneider'
p815
tp816
a(g58
S'Tim Robbins'
p817
tp818
a(g58
S'Hugh Laurie'
p819
tp820
a(g58
S'Nicholas Hoult'
p821
tp822
a(g58
S'Diego Luna'
p823
tp824
a(g58
S'Amanda Peet'
p825
tp826
a(g58
S'Angela Bassett'
p827
tp828
a(g58
S'Aaron Johnson'
p829
tp830
a(g58
S'Eva Mendes'
p831
tp832
a(g58
S'Carrie-Anne Moss'
p833
tp834
a(g58
S'Hayden Christensen'
p835
tp836
a(g58
S'Sean Penn'
p837
tp838
a(g58
S'Matt Dillon'
p839
tp840
a(g58
S'Joan Allen'
p841
tp842
a(g58
S'Jared Harris'
p843
tp844
a(g58
S'Jon Hamm'
p845
tp846
a(g58
S'Benjamin Bratt'
p847
tp848
a(g58
S'Mickey Rourke'
p849
tp850
a(g58
S'Robin Wright'
p851
tp852
a(g58
S'Ethan Hawke'
p853
tp854
a(g58
S'Kate Hudson'
p855
tp856
a(g58
S'Jet Li'
p857
tp858
a(g58
S'Leonard Nimoy'
p859
tp860
a(g58
S'Tom Holland'
p861
tp862
a(g58
S'Neil Patrick Harris'
p863
tp864
a(g58
S'Jake Johnson'
p865
tp866
a(g58
S'Danny McBride'
p867
tp868
a(g58
S'Donnie Yen'
p869
tp870
a(g58
S'Chris Tucker'
p871
tp872
a(g58
S'Nia Long'
p873
tp874
a(g58
S'Topher Grace'
p875
tp876
a(g58
S'Nick Swardson'
p877
tp878
a(g58
S'Josh Lucas'
p879
tp880
a(g58
S'Chloe Moretz'
p881
tp882
a(g58
S'Katherine Heigl'
p883
tp884
a(g58
S'Patrick Wilson'
p885
tp886
a(g58
S"Chris O'Donnell"
p887
tp888
a(g58
S'Evangeline Lilly'
p889
tp890
a(g58
S'Melissa Leo'
p891
tp892
a(g58
S'Vera Farmiga'
p893
tp894
a(g58
S'Seth MacFarlane'
p895
tp896
a(g58
S'John Slattery'
p897
tp898
a(g58
S'Uma Thurman'
p899
tp900
a(g58
S'Jessica Biel'
p901
tp902
a(g58
S'Karen Gillan'
p903
tp904
a(g58
S'Marlon Wayans'
p905
tp906
a(g58
S'Ricky Gervais'
p907
tp908
a(g58
S'Michael Cera'
p909
tp910
a(g58
S'Bette Midler'
p911
tp912
a(g58
S'Alan Alda'
p913
tp914
a(g58
S'Ryan Gosling'
p915
tp916
a(g58
S'Jemaine Clement'
p917
tp918
a(g58
S'Christina Ricci'
p919
tp920
a(g58
S'David Spade'
p921
tp922
a(g58
S'Rebecca Hall'
p923
tp924
a(g58
S'James Caviezel'
p925
tp926
a(g58
S'Ellen Page'
p927
tp928
a(g58
S'Tea Leoni'
p929
tp930
a(g58
S'Lucas Black'
p931
tp932
a(g58
S'Sharon Stone'
p933
tp934
a(g58
S'Javier Bardem'
p935
tp936
a(g58
S'Joey King'
p937
tp938
a(g58
S'Michelle Monaghan'
p939
tp940
a(g58
S'Sam Elliott'
p941
tp942
a(g58
S'Matthew Lillard'
p943
tp944
a(g58
S'Macaulay Culkin'
p945
tp946
a(g58
S'Peter Sarsgaard'
p947
tp948
a(g58
S'Brittany Murphy'
p949
tp950
a(g58
S'Rosamund Pike'
p951
tp952
a(g58
S'Rhys Ifans'
p953
tp954
a(g58
S'Andy Samberg'
p955
tp956
a(g58
S'Zachary Levi'
p957
tp958
a(g58
S'Bridget Moynahan'
p959
tp960
a(g58
S'Timothy Olyphant'
p961
tp962
a(g58
S'Michelle Williams'
p963
tp964
a(g58
S'Lisa Kudrow'
p965
tp966
a(g58
S'Elle Fanning'
p967
tp968
a(g58
S'Kelsey Grammer'
p969
tp970
a(g58
S'David Schwimmer'
p971
tp972
a(g58
S'Rebecca Romijn'
p973
tp974
a(g58
S'Frank Langella'
p975
tp976
a(g58
S'Josh Hartnett'
p977
tp978
a(g58
S'Rob Lowe'
p979
tp980
a(g58
S'Kat Dennings'
p981
tp982
a(g58
S'Justin Timberlake'
p983
tp984
a(g58
S'Imelda Staunton'
p985
tp986
a(g58
S'Dan Stevens'
p987
tp988
a(g58
S'Ben Whishaw'
p989
tp990
a(g58
S'Goldie Hawn'
p991
tp992
a(g58
S'Andrew Garfield'
p993
tp994
a(g58
S'Margot Robbie'
p995
tp996
a(g58
S'Miles Teller'
p997
tp998
a(g58
S'Ginnifer Goodwin'
p999
tp1000
a(g58
S'Luke Wilson'
p1001
tp1002
a(g58
S'Michael K. Williams'
p1003
tp1004
a(g58
S'Morris Chestnut'
p1005
tp1006
a(g58
S'Maggie Smith'
p1007
tp1008
a(g58
S'Michael Ealy'
p1009
tp1010
a(g58
S'Charlie Day'
p1011
tp1012
a(g58
S'Tina Fey'
p1013
tp1014
a(g58
S'Jackie Earle Haley'
p1015
tp1016
a(g58
S'Ioan Gruffudd'
p1017
tp1018
a(g58
S'Jared Leto'
p1019
tp1020
a(g58
S'Sarah Michelle Gellar'
p1021
tp1022
a(g58
S'Elizabeth Debicki'
p1023
tp1024
a(g58
S'Felicity Jones'
p1025
tp1026
a(g58
S'Paula Patton'
p1027
tp1028
a(g58
S'Edgar Ramirez'
p1029
tp1030
a(g58
S'Leslie Nielsen'
p1031
tp1032
a(g58
S'Larry the Cable Guy'
p1033
tp1034
a(g58
S'Ansel Elgort'
p1035
tp1036
a(g58
S'Beyonce Knowles'
p1037
tp1038
a(g58
S'Annette Bening'
p1039
tp1040
a(g58
S'Taylor Kitsch'
p1041
tp1042
a(g58
S'Adrien Brody'
p1043
tp1044
a(g58
S'Rebecca Ferguson'
p1045
tp1046
a(g58
S'Paul Dano'
p1047
tp1048
a(g58
S'Katie Holmes'
p1049
tp1050
a(g58
S'Radha Mitchell'
p1051
tp1052
a(g58
S'Parker Posey'
p1053
tp1054
a(g58
S'Garrett Hedlund'
p1055
tp1056
a(g58
S'Kyle Gallner'
p1057
tp1058
a(g58
S'John Corbett'
p1059
tp1060
a(g58
S'Dan Fogler'
p1061
tp1062
a(g58
S'Roger Moore'
p1063
tp1064
a(g58
S'Rodrigo Santoro'
p1065
tp1066
a(g58
S'Shailene Woodley'
p1067
tp1068
a(g58
S'Derek Luke'
p1069
tp1070
a(g58
S'Piper Perabo'
p1071
tp1072
a(g58
S'Adam Scott'
p1073
tp1074
a(g58
S'Courteney Cox'
p1075
tp1076
a(g58
S'James Gandolfini'
p1077
tp1078
a(g58
S'Eva Green'
p1079
tp1080
a(g58
S'America Ferrera'
p1081
tp1082
a(g58
S'Patrick Swayze'
p1083
tp1084
a(g58
S'Sharlto Copley'
p1085
tp1086
a(g58
S'Jamie Bell'
p1087
tp1088
a(g58
S'Ezra Miller'
p1089
tp1090
a(g58
S'Chadwick Boseman'
p1091
tp1092
a(g58
S'Olivia Wilde'
p1093
tp1094
a(g58
S'Jamie Chung'
p1095
tp1096
a(g58
S'Alice Eve'
p1097
tp1098
a(g58
S'Dominic Cooper'
p1099
tp1100
a(g58
S'Lena Headey'
p1101
tp1102
a(g58
S'Claire Danes'
p1103
tp1104
a(g58
S'Ali Larter'
p1105
tp1106
a(g58
S'Marlon Brando'
p1107
tp1108
a(g58
S'Jennifer Coolidge'
p1109
tp1110
a(g58
S'Lance Henriksen'
p1111
tp1112
a(g58
S'Anne Bancroft'
p1113
tp1114
a(g58
S'Clive Owen'
p1115
tp1116
a(g58
S'Tony Cox'
p1117
tp1118
a(g58
S'Will Forte'
p1119
tp1120
a(g58
S'Ben Foster'
p1121
tp1122
a(g58
S'Mike Vogel'
p1123
tp1124
a(g58
S'Teresa Palmer'
p1125
tp1126
a(g58
S'Mia Wasikowska'
p1127
tp1128
a(g58
S'Cam Gigandet'
p1129
tp1130
a(g58
S'Sydney Pollack'
p1131
tp1132
a(g58
S'Milla Jovovich'
p1133
tp1134
a(g58
S'Kate Bosworth'
p1135
tp1136
a(g58
S'Daniel Day-Lewis'
p1137
tp1138
a(g58
S'Eddie Redmayne'
p1139
tp1140
a(g58
S'"Freddie Prinze'
p1141
tp1142
a(g58
S'Taron Egerton'
p1143
tp1144
a(g58
S'Gemma Arterton'
p1145
tp1146
a(g58
S'David Oyelowo'
p1147
tp1148
a(g58
S'Tracy Morgan'
p1149
tp1150
a(g58
S'Armie Hammer'
p1151
tp1152
a(g58
S'Amy Ryan'
p1153
tp1154
a(g58
S'Brie Larson'
p1155
tp1156
a(g58
S'Rosie Huntington-Whiteley'
p1157
tp1158
a(g58
S'Logan Lerman'
p1159
tp1160
a(g58
S'Michelle Yeoh'
p1161
tp1162
a(g58
S'Lindsay Lohan'
p1163
tp1164
a(g58
S'Amber Heard'
p1165
tp1166
a(g58
S'Rufus Sewell'
p1167
tp1168
a(g58
S'Sanaa Lathan'
p1169
tp1170
a(g58
S'Brenton Thwaites'
p1171
tp1172
a(g58
S'Zhang Ziyi'
p1173
tp1174
a(g58
S'Ron Livingston'
p1175
tp1176
a(g58
S'Rooney Mara'
p1177
tp1178
a(g58
S'Blake Lively'
p1179
tp1180
a(g58
S'Chris Klein'
p1181
tp1182
a(g58
S'James Garner'
p1183
tp1184
a(g58
S'Hailee Steinfeld'
p1185
tp1186
a(g58
S'Jaden Smith'
p1187
tp1188
a(g58
S'Mary Elizabeth Winstead'
p1189
tp1190
a(g58
S'Virginia Madsen'
p1191
tp1192
a(g58
S'Hilary Swank'
p1193
tp1194
a(g58
S'Mindy Kaling'
p1195
tp1196
a(g58
S'Emma Roberts'
p1197
tp1198
a(g58
S'Rebel Wilson'
p1199
tp1200
a(g58
S'Clark Duke'
p1201
tp1202
a(g58
S'Mandy Moore'
p1203
tp1204
a(g58
S'Woody Allen'
p1205
tp1206
a(g58
S'Raven-Symone'
p1207
tp1208
a(g58
S'Tessa Thompson'
p1209
tp1210
a(g58
S'Jason Schwartzman'
p1211
tp1212
a(g58
S'Lily Tomlin'
p1213
tp1214
a(g58
S'Kate Mara'
p1215
tp1216
a(g58
S'Ty Burrell'
p1217
tp1218
a(g58
S'Nick Frost'
p1219
tp1220
a(g58
S'Lukas Haas'
p1221
tp1222
a(g58
S'Kodi Smit-McPhee'
p1223
tp1224
a(g58
S'Theo James'
p1225
tp1226
a(g58
S'Dev Patel'
p1227
tp1228
a(g58
S'Amanda Bynes'
p1229
tp1230
a(g58
S'Breckin Meyer'
p1231
tp1232
a(g58
S'Neve Campbell'
p1233
tp1234
a(g58
S'Christopher Reeve'
p1235
tp1236
a(g58
S'Sofia Boutella'
p1237
tp1238
a(g58
S'Tom Arnold'
p1239
tp1240
a(g58
S'John Krasinski'
p1241
tp1242
a(g58
S'Kal Penn'
p1243
tp1244
a(g58
S'Ryan Phillippe'
p1245
tp1246
a(g58
S'Tony Jaa'
p1247
tp1248
a(g58
S'Lily Collins'
p1249
tp1250
a(g58
S'Jessica Lange'
p1251
tp1252
a(g58
S'Brandon T. Jackson'
p1253
tp1254
a(g58
S'Freida Pinto'
p1255
tp1256
a(g58
S'Freddie Highmore'
p1257
tp1258
a(g58
S'Hilary Duff'
p1259
tp1260
a(g58
S'Jesse Plemons'
p1261
tp1262
a(g58
S'Cara Delevigne'
p1263
tp1264
a(g58
S'Omar Epps'
p1265
tp1266
a(g58
S'Selena Gomez'
p1267
tp1268
a(g58
S'Olga Kurylenko'
p1269
tp1270
a(g58
S'Juno Temple'
p1271
tp1272
a(g58
S'January Jones'
p1273
tp1274
a(g58
S'Shawn Wayans'
p1275
tp1276
a(g58
S'Alicia Silverstone'
p1277
tp1278
a(g58
S'Eugenio Derbez'
p1279
tp1280
a(g58
S'Cher'
p1281
tp1282
a(g58
S'Edward Burns'
p1283
tp1284
a(g58
S'Alexa Vega'
p1285
tp1286
a(g58
S'Denise Richards'
p1287
tp1288
a(g58
S'Lake Bell'
p1289
tp1290
a(g58
S'Adam Brody'
p1291
tp1292
a(g58
S'Franka Potente'
p1293
tp1294
a(g58
S'Adam DeVine'
p1295
tp1296
a(g58
S'Noomi Rapace'
p1297
tp1298
a(g58
S'Gena Rowlands'
p1299
tp1300
a(g58
S'Rashida Jones'
p1301
tp1302
a(g58
S'Mark Rylance'
p1303
tp1304
a(g58
S'Gene Wilder'
p1305
tp1306
a(g58
S'Madonna'
p1307
tp1308
a(g58
S'Olivia Thirlby'
p1309
tp1310
a(g58
S'Jon Heder'
p1311
tp1312
a(g58
S'Dane DeHaan'
p1313
tp1314
a(g58
S'Sally Hawkins'
p1315
tp1316
a(g58
S'Hayden Panettiere'
p1317
tp1318
a(g58
S'Katherine Waterston'
p1319
tp1320
a(g58
S'Jonathan Rhys Meyers'
p1321
tp1322
a(g58
S'Jennifer Love Hewitt'
p1323
tp1324
a(g58
S'Linda Hamilton'
p1325
tp1326
a(g58
S'Emmy Rossum'
p1327
tp1328
a(g58
S'Jorma Taccone'
p1329
tp1330
a(g58
S'Miley Cyrus'
p1331
tp1332
a(g58
S'Carey Mulligan'
p1333
tp1334
a(g58
S'Nia Vardalos'
p1335
tp1336
a(g58
S'Bella Thorne'
p1337
tp1338
a(g58
S'John Cena'
p1339
tp1340
a(g58
S'Jamie Harris'
p1341
tp1342
a(g58
S'Warren Beatty'
p1343
tp1344
a(g58
S'Alicia Vikander'
p1345
tp1346
a(g58
S'Christine Taylor'
p1347
tp1348
a(g58
S'Thomas Mann'
p1349
tp1350
a(g58
S'Matthew Goode'
p1351
tp1352
a(g58
S'Kristofer Hivju'
p1353
tp1354
a(g58
S'Michael Nyqvist'
p1355
tp1356
a(g58
S'Mathieu Amalric'
p1357
tp1358
a(g58
S'Abbie Cornish'
p1359
tp1360
a(g58
S'Sharon Leal'
p1361
tp1362
a(g58
S'Rory Culkin'
p1363
tp1364
a(g58
S'Jeffrey Dean Morgan'
p1365
tp1366
a(g58
S'Saoirse Ronan'
p1367
tp1368
a(g58
S'Ben Barnes'
p1369
tp1370
a(g58
S'Vanessa Hudgens'
p1371
tp1372
a(g58
S'Rutger Hauer'
p1373
tp1374
a(g58
S'Boris Kodjoe'
p1375
tp1376
a(g58
S'David Duchovny'
p1377
tp1378
a(g58
S'Boyd Holbrook'
p1379
tp1380
a(g58
S'Rihanna'
p1381
tp1382
a(g58
S'Zach Braff'
p1383
tp1384
a(g58
S'Snoop Dogg'
p1385
tp1386
a(g58
S'Chuck Norris'
p1387
tp1388
a(g58
S'Alexa Davalos'
p1389
tp1390
a(g58
S'Sophie Cookson'
p1391
tp1392
a(g58
S'AnnaSophia Robb'
p1393
tp1394
a(g58
S'Michael B. Jordan'
p1395
tp1396
a(g58
S'Chris Brown'
p1397
tp1398
a(g58
S"Jack O'Connell"
p1399
tp1400
a(g58
S'Trey Parker'
p1401
tp1402
a(g58
S'Leighton Meester'
p1403
tp1404
a(g58
S'Mireille Enos'
p1405
tp1406
a(g58
S'Whitney Houston'
p1407
tp1408
a(g58
S'50 Cent'
p1409
tp1410
a(g58
S'Alex Pettyfer'
p1411
tp1412
a(g58
S'Kaley Cuoco'
p1413
tp1414
a(g58
S'Michelle Trachtenberg'
p1415
tp1416
a(g58
S'Quvenzhane Wallis'
p1417
tp1418
a(g58
S'Melanie Laurent'
p1419
tp1420
a(g58
S'Dana Carvey'
p1421
tp1422
a(g58
S"Mo'Nique"
p1423
tp1424
a(g58
S'Bow Wow'
p1425
tp1426
a(g58
S'Zoe Kazan'
p1427
tp1428
a(g58
S'Emily Browning'
p1429
tp1430
a(g58
S'Julianne Hough'
p1431
tp1432
a(g58
S'Max Thieriot'
p1433
tp1434
a(g58
S'Frankie Muniz'
p1435
tp1436
a(g58
S'Jim Sturgess'
p1437
tp1438
a(g58
S'Jason Momoa'
p1439
tp1440
a(g58
S'Peter Berg'
p1441
tp1442
a(g58
S'Jessica Lucas'
p1443
tp1444
a(g58
S'Chris Messina'
p1445
tp1446
a(g58
S'Damon Wayans'
p1447
tp1448
a(g58
S'Sarah Paulson'
p1449
tp1450
a(g58
S'Adrianne Palicki'
p1451
tp1452
a(g58
S'Brooklyn Decker'
p1453
tp1454
a(g58
S'Thomas Jane'
p1455
tp1456
a(g58
S'Kevin Smith'
p1457
tp1458
a(g58
S'Erika Christensen'
p1459
tp1460
a(g58
S'Brandon Routh'
p1461
tp1462
a(g58
S'Matthew Perry'
p1463
tp1464
a(g58
S'Tye Sheridan'
p1465
tp1466
a(g58
S'Ne-Yo'
p1467
tp1468
a(g58
S'Katharine Hepburn'
p1469
tp1470
a(g58
S'Alexander Skarsg\xc3\xa5rd'
p1471
tp1472
a(g58
S'Jenna Fischer'
p1473
tp1474
a(g58
S'James Purefoy'
p1475
tp1476
a(g58
S'Martin Donovan'
p1477
tp1478
a(g58
S'Christopher Guest'
p1479
tp1480
a(g58
S'Alex Russell'
p1481
tp1482
a(g58
S'Aubrey Plaza'
p1483
tp1484
a(g58
S'Amanda Crew'
p1485
tp1486
a(g58
S'Luke Bracey'
p1487
tp1488
a(g58
S'Anna Friel'
p1489
tp1490
a(g58
S'Aziz Ansari'
p1491
tp1492
a(g58
S'Jordan Peele'
p1493
tp1494
a(g58
S'Zachary Gordon'
p1495
tp1496
a(g58
S'Rosemarie DeWitt'
p1497
tp1498
a(g58
S'Philip Kaufman'
p1499
tp1500
a(g58
S'Suraj Sharma'
p1501
tp1502
a(g58
S'Greta Gerwig'
p1503
tp1504
a(g58
S'Peter Krause'
p1505
tp1506
a(g58
S'Cody Horn'
p1507
tp1508
a(g58
S'Analeigh Tipton'
p1509
tp1510
a(g58
S'Katie Cassidy'
p1511
tp1512
a(g58
S'Gillian Anderson'
p1513
tp1514
a(g58
S'Corey Haim'
p1515
tp1516
a(g58
S'Jeremy Sumpter'
p1517
tp1518
a(g58
S'Ron Howard'
p1519
tp1520
a(g58
S'Nicki Minaj'
p1521
tp1522
a(g58
S'Imogen Poots'
p1523
tp1524
a(g58
S'Penn Badgley'
p1525
tp1526
a(g58
S'Romola Garai'
p1527
tp1528
a(g58
S'Elisabeth Moss'
p1529
tp1530
a(g58
S'Gabourey Sidibe'
p1531
tp1532
a(g58
S'Dianna Agron'
p1533
tp1534
a(g58
S'Noah Ringer'
p1535
tp1536
a(g58
S'Chris Farley'
p1537
tp1538
a(g58
S'Kate Upton'
p1539
tp1540
a(g58
S"Sean 'P. Diddy' Combs"
p1541
tp1542
a(g58
S'Lance Reddick'
p1543
tp1544
a(g58
S'Nikki Blonsky'
p1545
tp1546
a(g58
S'Rob Reiner'
p1547
tp1548
a(g58
S'Eminem'
p1549
tp1550
a(g58
S'Sarah Polley'
p1551
tp1552
a(g58
S'Mark Duplass'
p1553
tp1554
a(g58
S'Gina Rodriguez'
p1555
tp1556
a(g58
S'Thomas Dekker'
p1557
tp1558
a(g58
S'Max Records'
p1559
tp1560
a(g58
S'Gael Garcia Bernal'
p1561
tp1562
a(g58
S'Chloe Sevigny'
p1563
tp1564
a(g58
S'Jay Chou'
p1565
tp1566
a(g58
S'Dustin Ingram'
p1567
tp1568
a(g58
S'Sophie Okonedo'
p1569
tp1570
a(g58
S'Shiloh Fernandez'
p1571
tp1572
a(g58
S'Alyson Michalka'
p1573
tp1574
a(g58
S'Jenna Dewan-Tatum'
p1575
tp1576
a(g58
S'Katee Sackhoff'
p1577
tp1578
a(g58
S'Max Irons'
p1579
tp1580
a(g58
S'Rachel Bilson'
p1581
tp1582
a(g58
S'Keith Gordon'
p1583
tp1584
a(g58
S'Roberto Benigni'
p1585
tp1586
a(g58
S'Portia Doubleday'
p1587
tp1588
a(g58
S'Prince'
p1589
tp1590
a(g58
S'Goran Visnjic'
p1591
tp1592
a(g58
S'Ryan Guzman'
p1593
tp1594
a(g58
S'Tupac Shakur'
p1595
tp1596
a(g58
S'Julie Delpy'
p1597
tp1598
a(g58
S'Werner Herzog'
p1599
tp1600
a(g58
S'Justin Bieber'
p1601
tp1602
a(g58
S'Chace Crawford'
p1603
tp1604
a(g58
S'Alex Kendrick'
p1605
tp1606
a(g58
S"Jason O'Mara"
p1607
tp1608
a(g58
S"Quinton 'Rampage' Jackson"
p1609
tp1610
a(g58
S'Wilmer Valderrama'
p1611
tp1612
a(g58
S'Dean Norris'
p1613
tp1614
a(g58
S'Matt LeBlanc'
p1615
tp1616
a(g58
S'Keenen Ivory Wayans'
p1617
tp1618
a(g58
S'Cecile de France'
p1619
tp1620
a(g58
S'Garry Marshall'
p1621
tp1622
a(g58
S'Grant Heslov'
p1623
tp1624
a(g58
S'Katherine McPhee'
p1625
tp1626
a(g58
S'Sofia Coppola'
p1627
tp1628
a(g58
S'Taylor Schilling'
p1629
tp1630
a(g58
S'Kenny Wormald'
p1631
tp1632
a(g58
S'Emilie de Ravin'
p1633
tp1634
a(g58
S'Mary-Kate Olsen'
p1635
tp1636
a(g58
S'Carlos Mencia'
p1637
tp1638
a(g58
S'Callan McAuliffe'
p1639
tp1640
a(g58
S'Elisabeth Rohm'
p1641
tp1642
a(g58
S'Ashley Bell'
p1643
tp1644
a(g58
S'Melissa Benoist'
p1645
tp1646
a(g58
S'Matthias Schoenaerts'
p1647
tp1648
a(g58
S'Matisyahu'
p1649
tp1650
a(g58
S'Naturi Naughton'
p1651
tp1652
a(g58
S'Rhys Wakefield'
p1653
tp1654
a(g58
S'Carrie Underwood'
p1655
tp1656
a(g58
S'Scott Mescudi'
p1657
tp1658
a(g58
S'M. Night Shyamalan'
p1659
tp1660
a(g58
S'Colin Egglesfield'
p1661
tp1662
a(g58
S'Minka Kelly'
p1663
tp1664
a(g58
S'Seu Jorge'
p1665
tp1666
a(g58
S'Claire Foy'
p1667
tp1668
a(g58
S'Thomas Horn'
p1669
tp1670
a(g58
S'Ellen Wong'
p1671
tp1672
a(g58
S'Quentin Tarantino'
p1673
tp1674
a(g58
S'Tracy Letts'
p1675
tp1676
a(g58
S'Tom Sturridge'
p1677
tp1678
a(g58
S'Leigh Whannell'
p1679
tp1680
a(g58
S'Crystal Reed'
p1681
tp1682
a(g58
S'Mike Binder'
p1683
tp1684
a(g58
S'Jessica Brown Findlay'
p1685
tp1686
a(g58
S'Demetri Martin'
p1687
tp1688
a(g58
S'Brit Marling'
p1689
tp1690
a(g58
S'Kang-ho Song'
p1691
tp1692
a(g58
S'Harold Ramis'
p1693
tp1694
a(g58
S'Aimee Teegarden'
p1695
tp1696
a(g58
S'Akiva Schaffer'
p1697
tp1698
a(g58
S'John Cameron Mitchell'
p1699
tp1700
a(g58
S'Josh Zuckerman'
p1701
tp1702
a(g58
S'Macon Blair'
p1703
tp1704
a(g58
S'John Wayne'
p1705
tp1706
a(g58
S'Jay Duplass'
p1707
tp1708
a(g58
S'Vincent Gallo'
p1709
tp1710
a(g58
S'Miranda July'
p1711
tp1712
a(g58
S'Emily Ratajkowski'
p1713
tp1714
a(g58
S'Bel Powley'
p1715
tp1716
a(g58
S'Jim Jarmusch'
p1717
tp1718
a(g58
S'David Lynch'
p1719
tp1720
a(g58
S'Prabhu Dheva'
p1721
tp1722
a(g58
S'Josh Radnor'
p1723
tp1724
a(g58
S'Morgan Spurlock'
p1725
tp1726
a(g58
S'Mike Nichols'
p1727
tp1728
a(g58
S'Brian De Palma'
p1729
tp1730
a(g58
S'Michael Moore'
p1731
tp1732
a(g58
S'David Wain'
p1733
tp1734
a(g58
S'Sebasti\xc3\xa1n Silva'
p1735
tp1736
a(g58
S'Eli Roth'
p1737
tp1738
a(g58
S'Jay Chandrasekhar'
p1739
tp1740
a(g58
S'Alex Ross Perry'
p1741
tp1742
a(g58
S'Nick Jonas'
p1743
tp1744
a(g58
S'Joseph Schneider'
p1745
tp1746
a(g58
S'Rory Kinnear'
p1747
tp1748
a(S'director'
p1749
S'Steven Spielberg'
p1750
tp1751
a(g1749
S'Michael Bay'
p1752
tp1753
a(g1749
S'Peter Jackson'
p1754
tp1755
a(g1749
S'Robert Zemeckis'
p1756
tp1757
a(g1749
S'Christopher Nolan'
p1758
tp1759
a(g1749
S'James Cameron'
p1760
tp1761
a(g1749
S'Ron Howard'
p1762
tp1763
a(g1749
S'Tim Burton'
p1764
tp1765
a(g1749
S'Clint Eastwood'
p1766
tp1767
a(g1749
S'Chris Columbus'
p1768
tp1769
a(g1749
S'George Lucas'
p1770
tp1771
a(g1749
S'J.J. Abrams'
p1772
tp1773
a(g1749
S'Ridley Scott'
p1774
tp1775
a(g1749
S'David Yates'
p1776
tp1777
a(g1749
S'Gore Verbinski'
p1778
tp1779
a(g1749
S'Sam Raimi'
p1780
tp1781
a(g1749
S'Lee Unkrich'
p1782
tp1783
a(g1749
S'Francis Lawrence'
p1784
tp1785
a(g1749
S'Jon Favreau'
p1786
tp1787
a(g1749
S'Roland Emmerich'
p1788
tp1789
a(g1749
S'Zack Snyder'
p1790
tp1791
a(g1749
S'M. Night Shyamalan'
p1792
tp1793
a(g1749
S'Bill Condon'
p1794
tp1795
a(g1749
S'Pierre Coffin'
p1796
tp1797
a(g1749
S'Chris Renaud'
p1798
tp1799
a(g1749
S'Andrew Stanton'
p1800
tp1801
a(g1749
S'Andrew Adamson'
p1802
tp1803
a(g1749
S'Bryan Singer'
p1804
tp1805
a(g1749
S'Richard Donner'
p1806
tp1807
a(g1749
S'Brett Ratner'
p1808
tp1809
a(g1749
S'Shawn Levy'
p1810
tp1811
a(g1749
S'Joss Whedon'
p1812
tp1813
a(g1749
S'Ivan Reitman'
p1814
tp1815
a(g1749
S'Dennis Dugan'
p1816
tp1817
a(g1749
S'Jay Roach'
p1818
tp1819
a(g1749
S'Tony Scott'
p1820
tp1821
a(g1749
S'Barry Sonnenfeld'
p1822
tp1823
a(g1749
S'Steven Soderbergh'
p1824
tp1825
a(g1749
S'Todd Phillips'
p1826
tp1827
a(g1749
S'John Lasseter'
p1828
tp1829
a(g1749
S'Martin Scorsese'
p1830
tp1831
a(g1749
S'Garry Marshall'
p1832
tp1833
a(g1749
S'Carlos Saldanha'
p1834
tp1835
a(g1749
S'Joel Schumacher'
p1836
tp1837
a(g1749
S'Conrad Vernon'
p1838
tp1839
a(g1749
S'Pete Docter'
p1840
tp1841
a(g1749
S'Tom McGrath'
p1842
tp1843
a(g1749
S'Jon Turteltaub'
p1844
tp1845
a(g1749
S'Tom Shadyac'
p1846
tp1847
a(g1749
S'Rob Minkoff'
p1848
tp1849
a(g1749
S'David Fincher'
p1850
tp1851
a(g1749
S'Tyler Perry'
p1852
tp1853
a(g1749
S'Justin Lin'
p1854
tp1855
a(g1749
S'Sam Mendes'
p1856
tp1857
a(g1749
S'Mike Mitchell'
p1858
tp1859
a(g1749
S'James Wan'
p1860
tp1861
a(g1749
S'Barry Levinson'
p1862
tp1863
a(g1749
S'Joe Johnston'
p1864
tp1865
a(g1749
S'Peter Segal'
p1866
tp1867
a(g1749
S'Raja Gosnell'
p1868
tp1869
a(g1749
S'Brad Bird'
p1870
tp1871
a(g1749
S'The Farrelly Bros.'
p1872
tp1873
a(g1749
S'James Mangold'
p1874
tp1875
a(g1749
S'Tim Story'
p1876
tp1877
a(g1749
S'Wolfgang Petersen'
p1878
tp1879
a(g1749
S'Sydney Pollack'
p1880
tp1881
a(g1749
S'Oliver Stone'
p1882
tp1883
a(g1749
S'Eric Darnell'
p1884
tp1885
a(g1749
S'F. Gary Gray'
p1886
tp1887
a(g1749
S'Anthony Russo'
p1888
tp1889
a(g1749
S'Joe Russo'
p1890
tp1891
a(g1749
S'Paul Greengrass'
p1892
tp1893
a(g1749
S'Gareth Edwards'
p1894
tp1895
a(g1749
S'James Gunn'
p1896
tp1897
a(g1749
S'Mike Nichols'
p1898
tp1899
a(g1749
S'Lilly & Lana Wachowski'
p1900
tp1901
a(g1749
S'Martin Campbell'
p1902
tp1903
a(g1749
S'Phil Lord'
p1904
tp1905
a(g1749
S'Chris Miller (II)'
p1906
tp1907
a(g1749
S'Robert Rodriguez'
p1908
tp1909
a(g1749
S'Stephen Sommers'
p1910
tp1911
a(g1749
S'Adam Shankman'
p1912
tp1913
a(g1749
S'Rob Reiner'
p1914
tp1915
a(g1749
S'Peter Berg'
p1916
tp1917
a(g1749
S'John Landis'
p1918
tp1919
a(g1749
S'Colin Trevorrow'
p1920
tp1921
a(g1749
S'Kelly Asbury'
p1922
tp1923
a(g1749
S'Adam McKay'
p1924
tp1925
a(g1749
S'Quentin Tarantino'
p1926
tp1927
a(g1749
S'Rob Cohen'
p1928
tp1929
a(g1749
S'Brian De Palma'
p1930
tp1931
a(g1749
S'Chris Buck'
p1932
tp1933
a(g1749
S'Antoine Fuqua'
p1934
tp1935
a(g1749
S'Sylvester Stallone'
p1936
tp1937
a(g1749
S'Nancy Meyers'
p1938
tp1939
a(g1749
S'Kenneth Branagh'
p1940
tp1941
a(g1749
S'Rob Marshall'
p1942
tp1943
a(g1749
S'John McTiernan'
p1944
tp1945
a(g1749
S'Alfonso Cuaron'
p1946
tp1947
a(g1749
S'George Miller'
p1948
tp1949
a(g1749
S'Andy Tennant'
p1950
tp1951
a(g1749
S'Woody Allen'
p1952
tp1953
a(g1749
S'Gary Ross'
p1954
tp1955
a(g1749
S'Mel Gibson'
p1956
tp1957
a(g1749
S'Paul Feig'
p1958
tp1959
a(g1749
S'Mike Newell'
p1960
tp1961
a(g1749
S'Wes Craven'
p1962
tp1963
a(g1749
S'Frank Coraci'
p1964
tp1965
a(g1749
S'Michael Apted'
p1966
tp1967
a(g1749
S'Frank Oz'
p1968
tp1969
a(g1749
S'Joel Coen'
p1970
tp1971
a(g1749
S'Doug Liman'
p1972
tp1973
a(g1749
S'Andrew Davis'
p1974
tp1975
a(g1749
S'David Zucker'
p1976
tp1977
a(g1749
S'Jan DeBont'
p1978
tp1979
a(g1749
S'Phillip Noyce'
p1980
tp1981
a(g1749
S'Betty Thomas'
p1982
tp1983
a(g1749
S'Chris Sanders'
p1984
tp1985
a(g1749
S'Ang Lee'
p1986
tp1987
a(g1749
S'Dean DeBlois'
p1988
tp1989
a(g1749
S'Rich Moore'
p1990
tp1991
a(g1749
S'Lasse Hallstrom'
p1992
tp1993
a(g1749
S'Renny Harlin'
p1994
tp1995
a(g1749
S'John Woo'
p1996
tp1997
a(g1749
S'Edward Zwick'
p1998
tp1999
a(g1749
S'Michael Mann'
p2000
tp2001
a(g1749
S'David Silverman'
p2002
tp2003
a(g1749
S'Marc Webb'
p2004
tp2005
a(g1749
S'David O. Russell'
p2006
tp2007
a(g1749
S'Guy Ritchie'
p2008
tp2009
a(g1749
S'Nora Ephron'
p2010
tp2011
a(g1749
S'Marc Forster'
p2012
tp2013
a(g1749
S'Steve Carr'
p2014
tp2015
a(g1749
S'Simon West'
p2016
tp2017
a(g1749
S'William Friedkin'
p2018
tp2019
a(g1749
S'David Ayer'
p2020
tp2021
a(g1749
S'Louis Leterrier'
p2022
tp2023
a(g1749
S'Judd Apatow'
p2024
tp2025
a(g1749
S'Jerry Zucker'
p2026
tp2027
a(g1749
S'Peyton Reed'
p2028
tp2029
a(g1749
S'Rob Letterman'
p2030
tp2031
a(g1749
S'McG'
p2032
tp2033
a(g1749
S'Mark S. Waters'
p2034
tp2035
a(g1749
S'Chris Weitz'
p2036
tp2037
a(g1749
S'Robert Schwentke'
p2038
tp2039
a(g1749
S'Chris Miller'
p2040
tp2041
a(g1749
S'Scott Derrickson'
p2042
tp2043
a(g1749
S'John Singleton'
p2044
tp2045
a(g1749
S'Matthew Vaughn'
p2046
tp2047
a(g1749
S'Peter Weir'
p2048
tp2049
a(g1749
S'Matt Reeves'
p2050
tp2051
a(g1749
S'Roger Donaldson'
p2052
tp2053
a(g1749
S'Cameron Crowe'
p2054
tp2055
a(g1749
S'John Lee Hancock'
p2056
tp2057
a(g1749
S'Tim Johnson'
p2058
tp2059
a(g1749
S'Shane Black'
p2060
tp2061
a(g1749
S'Paul Weitz'
p2062
tp2063
a(g1749
S'Patty Jenkins'
p2064
tp2065
a(g1749
S'Paul Verhoeven'
p2066
tp2067
a(g1749
S'Chris Wedge'
p2068
tp2069
a(g1749
S'Paul W.S. Anderson'
p2070
tp2071
a(g1749
S'Harold Ramis'
p2072
tp2073
a(g1749
S'Vicky Jenson'
p2074
tp2075
a(g1749
S'Nick Stoller'
p2076
tp2077
a(g1749
S'Seth Gordon'
p2078
tp2079
a(g1749
S'Jonathan Liebesman'
p2080
tp2081
a(g1749
S'David Dobkin'
p2082
tp2083
a(g1749
S'Taylor Hackford'
p2084
tp2085
a(g1749
S'Robert Luketic'
p2086
tp2087
a(g1749
S'Malcolm D. Lee'
p2088
tp2089
a(g1749
S'Guillermo del Toro'
p2090
tp2091
a(g1749
S'Martin Brest'
p2092
tp2093
a(g1749
S'Alan J. Pakula'
p2094
tp2095
a(g1749
S'Irvin Kershner'
p2096
tp2097
a(g1749
S'Penny Marshall'
p2098
tp2099
a(g1749
S'Curtis Hanson'
p2100
tp2101
a(g1749
S'Ethan Coen'
p2102
tp2103
a(g1749
S'Jennifer Lee'
p2104
tp2105
a(g1749
S'Keenen Ivory Wayans'
p2106
tp2107
a(g1749
S'Andres Muschietti'
p2108
tp2109
a(g1749
S'Walter Hill'
p2110
tp2111
a(g1749
S'Mel Brooks'
p2112
tp2113
a(g1749
S'Rawson Marshall Thurber'
p2114
tp2115
a(g1749
S'Jonathan Demme'
p2116
tp2117
a(g1749
S'James L. Brooks'
p2118
tp2119
a(g1749
S'Tim Hill'
p2120
tp2121
a(g1749
S'Amy Heckerling'
p2122
tp2123
a(g1749
S'Spike Lee'
p2124
tp2125
a(g1749
S'Anne Fletcher'
p2126
tp2127
a(g1749
S'David Frankel'
p2128
tp2129
a(g1749
S'Jon Chu'
p2130
tp2131
a(g1749
S'Kevin Reynolds'
p2132
tp2133
a(g1749
S'Andy Fickman'
p2134
tp2135
a(g1749
S'Jeff Tremaine'
p2136
tp2137
a(g1749
S'Brad Silberling'
p2138
tp2139
a(g1749
S'Kevin Costner'
p2140
tp2141
a(g1749
S'Jim Abrahams'
p2142
tp2143
a(g1749
S'Seth MacFarlane'
p2144
tp2145
a(g1749
S'Peter Hyams'
p2146
tp2147
a(g1749
S'David Slade'
p2148
tp2149
a(g1749
S'D.J. Caruso'
p2150
tp2151
a(g1749
S'Brenda Chapman'
p2152
tp2153
a(g1749
S'Chris Williams'
p2154
tp2155
a(g1749
S'Sean Anders'
p2156
tp2157
a(g1749
S'John Hughes'
p2158
tp2159
a(g1749
S'Brian Robbins'
p2160
tp2161
a(g1749
S'Luc Besson'
p2162
tp2163
a(g1749
S'Ben Stiller'
p2164
tp2165
a(g1749
S'Garth Jennings'
p2166
tp2167
a(g1749
S'Lee Tamahori'
p2168
tp2169
a(g1749
S'Alex Proyas'
p2170
tp2171
a(g1749
S'Jaume Collet-Serra'
p2172
tp2173
a(g1749
S'Baz Luhrmann'
p2174
tp2175
a(g1749
S'Jennifer Yuh Nelson'
p2176
tp2177
a(g1749
S'Nick Cassavetes'
p2178
tp2179
a(g1749
S'Len Wiseman'
p2180
tp2181
a(g1749
S'Brad Peyton'
p2182
tp2183
a(g1749
S'Taika Waititi'
p2184
tp2185
a(g1749
S'Denis Villeneuve'
p2186
tp2187
a(g1749
S'Danny Boyle'
p2188
tp2189
a(g1749
S'Tom Hooper'
p2190
tp2191
a(g1749
S'Harald Zwart'
p2192
tp2193
a(g1749
S'Lawrence Kasdan'
p2194
tp2195
a(g1749
S'Olivier Megaton'
p2196
tp2197
a(g1749
S'Alan Taylor'
p2198
tp2199
a(g1749
S'Bob Peterson'
p2200
tp2201
a(g1749
S'Michael Lembeck'
p2202
tp2203
a(g1749
S'John Carpenter'
p2204
tp2205
a(g1749
S'Gus Van Sant'
p2206
tp2207
a(g1749
S'Alejandro Gonz\xc3\xa1lez I\xc3\xb1\xc3\xa1rritu'
p2208
tp2209
a(g1749
S'Randall Wallace'
p2210
tp2211
a(g1749
S'Catherine Hardwicke'
p2212
tp2213
a(g1749
S'Joseph Ruben'
p2214
tp2215
a(g1749
S'Jason Reitman'
p2216
tp2217
a(g1749
S'Christopher McQuarrie'
p2218
tp2219
a(g1749
S'Joseph Kosinski'
p2220
tp2221
a(g1749
S'Stephen Frears'
p2222
tp2223
a(g1749
S'Robert Altman'
p2224
tp2225
a(g1749
S'Tate Taylor'
p2226
tp2227
a(g1749
S'Neil Jordan'
p2228
tp2229
a(g1749
S'Robert Redford'
p2230
tp2231
a(g1749
S'Steven Brill'
p2232
tp2233
a(g1749
S'Neil Burger'
p2234
tp2235
a(g1749
S'Mark Steven Johnson'
p2236
tp2237
a(g1749
S'Darren Aronofsky'
p2238
tp2239
a(g1749
S'Dan Scanlon'
p2240
tp2241
a(g1749
S'Penelope Spheeris'
p2242
tp2243
a(g1749
S'Larry Charles'
p2244
tp2245
a(g1749
S'Anthony Minghella'
p2246
tp2247
a(g1749
S'Ben Affleck'
p2248
tp2249
a(g1749
S'John Madden'
p2250
tp2251
a(g1749
S'Warren Beatty'
p2252
tp2253
a(g1749
S'Gary Winick'
p2254
tp2255
a(g1749
S'Frank Marshall'
p2256
tp2257
a(g1749
S'Alexander Payne'
p2258
tp2259
a(g1749
S'Charles Shyer'
p2260
tp2261
a(g1749
S'Don Hall'
p2262
tp2263
a(g1749
S'Michael Patrick King'
p2264
tp2265
a(g1749
S'Gabriele Muccino'
p2266
tp2267
a(g1749
S'Stephen Hopkins'
p2268
tp2269
a(g1749
S'Dean Parisot'
p2270
tp2271
a(g1749
S'Ken Kwapis'
p2272
tp2273
a(g1749
S'Ron Underwood'
p2274
tp2275
a(g1749
S'Brian Helgeland'
p2276
tp2277
a(g1749
S'John Moore'
p2278
tp2279
a(g1749
S'Steve Oedekerk'
p2280
tp2281
a(g1749
S'Robert Stromberg'
p2282
tp2283
a(g1749
S'Stanley Kubrick'
p2284
tp2285
a(g1749
S'Neill Blomkamp'
p2286
tp2287
a(g1749
S'Mark Andrews'
p2288
tp2289
a(g1749
S'P.J. Hogan'
p2290
tp2291
a(g1749
S'James Foley'
p2292
tp2293
a(g1749
S'Robert Benton'
p2294
tp2295
a(g1749
S'Wes Anderson'
p2296
tp2297
a(g1749
S'David R. Ellis'
p2298
tp2299
a(g1749
S'Don Bluth'
p2300
tp2301
a(g1749
S'Darren Lynn Bousman'
p2302
tp2303
a(g1749
S'Kathryn Bigelow'
p2304
tp2305
a(g1749
S'Thomas Carter'
p2306
tp2307
a(g1749
S'Tarsem'
p2308
tp2309
a(g1749
S'Simon Wells'
p2310
tp2311
a(g1749
S'Boaz Yakin'
p2312
tp2313
a(g1749
S'Jimmy Hayward'
p2314
tp2315
a(g1749
S'Danny DeVito'
p2316
tp2317
a(g1749
S'Frank Darabont'
p2318
tp2319
a(g1749
S'Tom Dey'
p2320
tp2321
a(g1749
S'Will Gluck'
p2322
tp2323
a(g1749
S'Kirk De Micco'
p2324
tp2325
a(g1749
S'Terry Gilliam'
p2326
tp2327
a(g1749
S'Mimi Leder'
p2328
tp2329
a(g1749
S'John Whitesell'
p2330
tp2331
a(g1749
S'Theodore Melfi'
p2332
tp2333
a(g1749
S'Joe Roth'
p2334
tp2335
a(g1749
S'Gregory Hoblit'
p2336
tp2337
a(g1749
S'Peter Chelsom'
p2338
tp2339
a(g1749
S'Rupert Wyatt'
p2340
tp2341
a(g1749
S'Michael Caton-Jones'
p2342
tp2343
a(g1749
S'Simon J. Smith'
p2344
tp2345
a(g1749
S'Joe Wright'
p2346
tp2347
a(g1749
S'Dominic Sena'
p2348
tp2349
a(g1749
S'Kevin Smith'
p2350
tp2351
a(g1749
S'David Bowers'
p2352
tp2353
a(g1749
S'Thor Freudenthal'
p2354
tp2355
a(g1749
S'Kenny Ortega'
p2356
tp2357
a(g1749
S'Jon Lucas'
p2358
tp2359
a(g1749
S'Scott Moore'
p2360
tp2361
a(g1749
S'Richard Linklater'
p2362
tp2363
a(g1749
S'George Clooney'
p2364
tp2365
a(g1749
S'Tony Gilroy'
p2366
tp2367
a(g1749
S'Edgar Wright'
p2368
tp2369
a(g1749
S'Josh Gordon'
p2370
tp2371
a(g1749
S'Will Speck'
p2372
tp2373
a(g1749
S'Jake Kasdan'
p2374
tp2375
a(g1749
S'Timur Bekmambetov'
p2376
tp2377
a(g1749
S'Henry Joost'
p2378
tp2379
a(g1749
S'Ariel Schulman'
p2380
tp2381
a(g1749
S'Allen Hughes'
p2382
tp2383
a(g1749
S'Rupert Sanders'
p2384
tp2385
a(g1749
S'Luke Greenfield'
p2386
tp2387
a(g1749
S'Morten Tyldum'
p2388
tp2389
a(g1749
S'Jonathan Levine'
p2390
tp2391
a(g1749
S'Greg Mottola'
p2392
tp2393
a(g1749
S'Brad Lewis'
p2394
tp2395
a(g1749
S'Michael Moore'
p2396
tp2397
a(g1749
S'"George Tillman'
p2398
tp2399
a(g1749
S'Jean-Jacques Annaud'
p2400
tp2401
a(g1749
S'Baltasar Kormakur'
p2402
tp2403
a(g1749
S'Henry Selick'
p2404
tp2405
a(g1749
S'Elizabeth Banks'
p2406
tp2407
a(g1749
S'Wes Ball'
p2408
tp2409
a(g1749
S"Gavin O'Connor"
p2410
tp2411
a(g1749
S'Kirk Jones'
p2412
tp2413
a(g1749
S'Pierre Morel'
p2414
tp2415
a(g1749
S'Andrzej Bartkowiak'
p2416
tp2417
a(g1749
S'Scott Hicks'
p2418
tp2419
a(g1749
S'Albert Hughes'
p2420
tp2421
a(g1749
S'Aaron Seltzer'
p2422
tp2423
a(g1749
S'Marcus Nispel'
p2424
tp2425
a(g1749
S'Jordan Peele'
p2426
tp2427
a(g1749
S'Joe Carnahan'
p2428
tp2429
a(g1749
S'Joachim Ronning'
p2430
tp2431
a(g1749
S'Espen Sandberg'
p2432
tp2433
a(g1749
S'Peter Hewitt'
p2434
tp2435
a(g1749
S'Sam Fell'
p2436
tp2437
a(g1749
S'Jordan Vogt-Roberts'
p2438
tp2439
a(g1749
S'David F. Sandberg'
p2440
tp2441
a(g1749
S'David Twohy'
p2442
tp2443
a(g1749
S'Jay Russell'
p2444
tp2445
a(g1749
S'Sam Taylor-Johnson'
p2446
tp2447
a(g1749
S'Mikael Hafstrom'
p2448
tp2449
a(g1749
S'Lee Daniels'
p2450
tp2451
a(g1749
S'Damien Chazelle'
p2452
tp2453
a(g1749
S'Glenn Ficarra'
p2454
tp2455
a(g1749
S'John Requa'
p2456
tp2457
a(g1749
S'Paul Tibbitt'
p2458
tp2459
a(g1749
S'Michel Gondry'
p2460
tp2461
a(g1749
S'James Wong'
p2462
tp2463
a(g1749
S'Roger Kumble'
p2464
tp2465
a(g1749
S'Ruben Fleischer'
p2466
tp2467
a(g1749
S'Daniel Espinosa'
p2468
tp2469
a(g1749
S'David Soren'
p2470
tp2471
a(g1749
S'Barry Cook'
p2472
tp2473
a(g1749
S'Barbra Streisand'
p2474
tp2475
a(g1749
S'Rob Bowman'
p2476
tp2477
a(g1749
S'Clark Johnson'
p2478
tp2479
a(g1749
S'David Gordon Green'
p2480
tp2481
a(g1749
S'Jason Moore'
p2482
tp2483
a(g1749
S'Ronny Yu'
p2484
tp2485
a(g1749
S'Michael Hoffman'
p2486
tp2487
a(g1749
S'Neil LaBute'
p2488
tp2489
a(g1749
S'Spike Jonze'
p2490
tp2491
a(g1749
S'Michael Lehman'
p2492
tp2493
a(g1749
S'Steve Pink'
p2494
tp2495
a(g1749
S'Roman Polanski'
p2496
tp2497
a(g1749
S'Alex Kendrick'
p2498
tp2499
a(g1749
S'Carl Franklin'
p2500
tp2501
a(g1749
S'Jim Sheridan'
p2502
tp2503
a(g1749
S'Fede Alvarez'
p2504
tp2505
a(g1749
S'Iain Softley'
p2506
tp2507
a(g1749
S'Peter Lord'
p2508
tp2509
a(g1749
S'Barbet Schroeder'
p2510
tp2511
a(g1749
S'James DeMonaco'
p2512
tp2513
a(g1749
S'Forest Whitaker'
p2514
tp2515
a(g1749
S'Martha Coolidge'
p2516
tp2517
a(g1749
S'Chad Stahelski'
p2518
tp2519
a(g1749
S'John R. Leonetti'
p2520
tp2521
a(g1749
S'Paul Thomas Anderson'
p2522
tp2523
a(g1749
S'Zhang Yimou'
p2524
tp2525
a(g1749
S'Stephen Daldry'
p2526
tp2527
a(g1749
S'Gil Kenan'
p2528
tp2529
a(g1749
S'Jason Friedberg'
p2530
tp2531
a(g1749
S'Ryan Coogler'
p2532
tp2533
a(g1749
S'Michael Sucsy'
p2534
tp2535
a(g1749
S'Josh Boone'
p2536
tp2537
a(g1749
S'James McTeigue'
p2538
tp2539
a(g1749
S'Bill Duke'
p2540
tp2541
a(g1749
S'Rob Zombie'
p2542
tp2543
a(g1749
S'Jay Chandrasekhar'
p2544
tp2545
a(g1749
S'Richard LaGravenese'
p2546
tp2547
a(g1749
S'John Schultz'
p2548
tp2549
a(g1749
S'Dave Green'
p2550
tp2551
a(g1749
S'Josh Trank'
p2552
tp2553
a(g1749
S'Irwin Winkler'
p2554
tp2555
a(g1749
S'Angelina Jolie'
p2556
tp2557
a(g1749
S'Bennett Miller'
p2558
tp2559
a(g1749
S'Noam Murro'
p2560
tp2561
a(g1749
S'Frederik Du Chau'
p2562
tp2563
a(g1749
S'David S. Goyer'
p2564
tp2565
a(g1749
S'Patrick Hughes'
p2566
tp2567
a(g1749
S'David Koepp'
p2568
tp2569
a(g1749
S'Craig Gillespie'
p2570
tp2571
a(g1749
S'John Erick Dowdle'
p2572
tp2573
a(g1749
S'Mark Neveldine'
p2574
tp2575
a(g1749
S'Brian Taylor'
p2576
tp2577
a(g1749
S'Scott Waugh'
p2578
tp2579
a(g1749
S'Scott Cooper'
p2580
tp2581
a(g1749
S'William Brent Bell'
p2582
tp2583
a(g1749
S'Miguel Arteta'
p2584
tp2585
a(g1749
S'Burr Steers'
p2586
tp2587
a(g1749
S'Andrew Niccol'
p2588
tp2589
a(g1749
S'Will Finn'
p2590
tp2591
a(g1749
S'Denzel Washington'
p2592
tp2593
a(g1749
S'Stephen Chbosky'
p2594
tp2595
a(g1749
S'Victor Salva'
p2596
tp2597
a(g1749
S'Oren Peli'
p2598
tp2599
a(g1749
S'Dean Israelite'
p2600
tp2601
a(g1749
S'Frank Miller'
p2602
tp2603
a(g1749
S'Evan Goldberg'
p2604
tp2605
a(g1749
S'Seth Rogen'
p2606
tp2607
a(g1749
S'Duncan Jones'
p2608
tp2609
a(g1749
S'Andrew Fleming'
p2610
tp2611
a(g1749
S'James Ivory'
p2612
tp2613
a(g1749
S'Peter Hedges'
p2614
tp2615
a(g1749
S'Niki Caro'
p2616
tp2617
a(g1749
S'Michael Cimino'
p2618
tp2619
a(g1749
S'Alejandro Amenabar'
p2620
tp2621
a(g1749
S'Steven Quale'
p2622
tp2623
a(g1749
S'David Lynch'
p2624
tp2625
a(g1749
S'Beeban Kidron'
p2626
tp2627
a(g1749
S'Sharon Maguire'
p2628
tp2629
a(g1749
S'Patrick Lussier'
p2630
tp2631
a(g1749
S'Jon Hurwitz'
p2632
tp2633
a(g1749
S'Hayden Schlossberg'
p2634
tp2635
a(g1749
S'David Leitch'
p2636
tp2637
a(g1749
S'Bille Woodruff'
p2638
tp2639
a(g1749
S'Eli Roth'
p2640
tp2641
a(g1749
S'Brad Furman'
p2642
tp2643
a(g1749
S'Tom Vaughan'
p2644
tp2645
a(g1749
S'John Luessenhop'
p2646
tp2647
a(g1749
S'Alex Kurtzman'
p2648
tp2649
a(g1749
S'Jean-Pierre Jeunet'
p2650
tp2651
a(g1749
S'Christopher B. Landon'
p2652
tp2653
a(g1749
S'Nimr\xc3\xb3d Antal'
p2654
tp2655
a(g1749
S'Etan Cohen'
p2656
tp2657
a(g1749
S'Klay Hall'
p2658
tp2659
a(g1749
S'Callie Khouri'
p2660
tp2661
a(g1749
S'Julie Anne Robinson'
p2662
tp2663
a(g1749
S'Tod Williams'
p2664
tp2665
a(g1749
S'Ryan Murphy'
p2666
tp2667
a(g1749
S'Scott Charles Stewart'
p2668
tp2669
a(g1749
S'David Wain'
p2670
tp2671
a(g1749
S'Pete Travis'
p2672
tp2673
a(g1749
S'Trey Parker'
p2674
tp2675
a(g1749
S'Cal Brunker'
p2676
tp2677
a(g1749
S'Mike Judge'
p2678
tp2679
a(g1749
S'Jodie Foster'
p2680
tp2681
a(g1749
S'Thomas Bezucha'
p2682
tp2683
a(g1749
S'Sofia Coppola'
p2684
tp2685
a(g1749
S'Mira Nair'
p2686
tp2687
a(g1749
S'Paul Haggis'
p2688
tp2689
a(g1749
S'Ernest R. Dickerson'
p2690
tp2691
a(g1749
S'Craig Brewer'
p2692
tp2693
a(g1749
S'Mike Binder'
p2694
tp2695
a(g1749
S'John Stockwell'
p2696
tp2697
a(g1749
S'Kevin Macdonald'
p2698
tp2699
a(g1749
S'Charles Stone III'
p2700
tp2701
a(g1749
S'Mary Lambert'
p2702
tp2703
a(g1749
S'Gina Prince-Bythewood'
p2704
tp2705
a(g1749
S'Richard Loncraine'
p2706
tp2707
a(g1749
S'Jean-Marc Vallee'
p2708
tp2709
a(g1749
S'Paul King'
p2710
tp2711
a(g1749
S'Chris Rock'
p2712
tp2713
a(g1749
S'Zach Braff'
p2714
tp2715
a(g1749
S'Jonathan Dayton'
p2716
tp2717
a(g1749
S'Valerie Faris'
p2718
tp2719
a(g1749
S'Rick Famuyiwa'
p2720
tp2721
a(g1749
S'Frederik Du Chou'
p2722
tp2723
a(g1749
S'Rian Johnson'
p2724
tp2725
a(g1749
S'Steven Zaillian'
p2726
tp2727
a(g1749
S'Tom McCarthy'
p2728
tp2729
a(g1749
S'Mike McCoy'
p2730
tp2731
a(g1749
S'George Nolfi'
p2732
tp2733
a(g1749
S'Nima Nourizadeh'
p2734
tp2735
a(g1749
S'Michael Tiddes'
p2736
tp2737
a(g1749
S'John Dahl'
p2738
tp2739
a(g1749
S'Stephen Gaghan'
p2740
tp2741
a(g1749
S'Tom Tykwer'
p2742
tp2743
a(g1749
S'Terrence Malick'
p2744
tp2745
a(g1749
S'Gregory Jacobs'
p2746
tp2747
a(g1749
S'Pedro Almodovar'
p2748
tp2749
a(g1749
S'Sean McNamara'
p2750
tp2751
a(g1749
S'Jeremy Garelick'
p2752
tp2753
a(g1749
S'Peter Lepeniotis'
p2754
tp2755
a(g1749
S'Mark Pellington'
p2756
tp2757
a(g1749
S'Jeff Wadlow'
p2758
tp2759
a(g1749
S'Greg Strause'
p2760
tp2761
a(g1749
S'Mike Flanagan'
p2762
tp2763
a(g1749
S'Roberto Benigni'
p2764
tp2765
a(g1749
S'Mars Marlind'
p2766
tp2767
a(g1749
S'Bjorn Stein'
p2768
tp2769
a(g1749
S'Salim Akil'
p2770
tp2771
a(g1749
S'Tom Hanks'
p2772
tp2773
a(g1749
S'Albert Brooks'
p2774
tp2775
a(g1749
S"Dinesh D'Souza"
p2776
tp2777
a(g1749
S'Steve McQueen (II)'
p2778
tp2779
a(g1749
S'John Hillcoat'
p2780
tp2781
a(g1749
S'Gregory Nava'
p2782
tp2783
a(g1749
S'David Mamet'
p2784
tp2785
a(g1749
S'Paul Schrader'
p2786
tp2787
a(g1749
S'Christopher Spencer'
p2788
tp2789
a(g1749
S'Brad Anderson'
p2790
tp2791
a(g1749
S'John Herzfeld'
p2792
tp2793
a(g1749
S'Jose Padilha'
p2794
tp2795
a(g1749
S'Akiva Schaffer'
p2796
tp2797
a(g1749
S'Jonathan M. Goldstein'
p2798
tp2799
a(g1749
S'Christophe Gans'
p2800
tp2801
a(g1749
S'Gillian Armstrong'
p2802
tp2803
a(g1749
S'Geoffrey Sax'
p2804
tp2805
a(g1749
S'Kimberly Peirce'
p2806
tp2807
a(g1749
S'Kenneth Lonergan'
p2808
tp2809
a(g1749
S'Jane Campion'
p2810
tp2811
a(g1749
S'Gary Shore'
p2812
tp2813
a(g1749
S'John Wells'
p2814
tp2815
a(g1749
S'Tommy Wirkola'
p2816
tp2817
a(g1749
S'Billy Ray'
p2818
tp2819
a(g1749
S'Kevin Munroe'
p2820
tp2821
a(g1749
S'Greg Berlanti'
p2822
tp2823
a(g1749
S'Fred Wolf'
p2824
tp2825
a(g1749
S'James Watkins'
p2826
tp2827
a(g1749
S'R.J. Cutler'
p2828
tp2829
a(g1749
S'Anton Corbijn'
p2830
tp2831
a(g1749
S'Sam Miller'
p2832
tp2833
a(g1749
S'Julie Taymor'
p2834
tp2835
a(g1749
S'Ava DuVernay'
p2836
tp2837
a(g1749
S'Leigh Whannell'
p2838
tp2839
a(g1749
S'Tom Brady'
p2840
tp2841
a(g1749
S'David Seltzer'
p2842
tp2843
a(g1749
S'Stiles White'
p2844
tp2845
a(g1749
S'Graham Annable'
p2846
tp2847
a(g1749
S'Anthony Stacchi'
p2848
tp2849
a(g1749
S'Ole Bornedal'
p2850
tp2851
a(g1749
S'Jorge R. Gutierrez'
p2852
tp2853
a(g1749
S'Rod Lurie'
p2854
tp2855
a(g1749
S'Bruce A. Evans'
p2856
tp2857
a(g1749
S'Travis Knight'
p2858
tp2859
a(g1749
S'John Sullivan'
p2860
tp2861
a(g1749
S'John Crowley'
p2862
tp2863
a(g1749
S'Tim Robbins'
p2864
tp2865
a(g1749
S'Sarah Smith'
p2866
tp2867
a(g1749
S'Christopher Guest'
p2868
tp2869
a(g1749
S'Michel Hazanavicius'
p2870
tp2871
a(g1749
S'Dan Bradley'
p2872
tp2873
a(g1749
S'Elizabeth Allen (II)'
p2874
tp2875
a(g1749
S'James Gray'
p2876
tp2877
a(g1749
S'Don Roos'
p2878
tp2879
a(g1749
S'Chris Stokes'
p2880
tp2881
a(g1749
S'Diane Keaton'
p2882
tp2883
a(g1749
S'Karyn Kusama'
p2884
tp2885
a(g1749
S'Shana Feste'
p2886
tp2887
a(g1749
S'Derek Cianfrance'
p2888
tp2889
a(g1749
S'Chris Kentis'
p2890
tp2891
a(g1749
S'Ric Roman Waugh'
p2892
tp2893
a(g1749
S'Davis Guggenheim'
p2894
tp2895
a(g1749
S'Michael Dougherty'
p2896
tp2897
a(g1749
S'Dan Gilroy'
p2898
tp2899
a(g1749
S'Drew Goddard'
p2900
tp2901
a(g1749
S'Courtney Solomon'
p2902
tp2903
a(g1749
S'Morgan Spurlock'
p2904
tp2905
a(g1749
S'Todd Field'
p2906
tp2907
a(g1749
S'Ken Scott'
p2908
tp2909
a(g1749
S'Mike Leigh'
p2910
tp2911
a(g1749
S'Daniel Stamm'
p2912
tp2913
a(g1749
S'George Gallo'
p2914
tp2915
a(g1749
S'Nicole Holofcener'
p2916
tp2917
a(g1749
S'Michael Cuesta'
p2918
tp2919
a(g1749
S'Adam Wingard'
p2920
tp2921
a(g1749
S'Steven Antin'
p2922
tp2923
a(g1749
S'Oliver Parker'
p2924
tp2925
a(g1749
S'Hayao Miyazaki'
p2926
tp2927
a(g1749
S'Michael Radford'
p2928
tp2929
a(g1749
S'Carl Rinsch'
p2930
tp2931
a(g1749
S'Justin Chadwick'
p2932
tp2933
a(g1749
S'Todd Graff'
p2934
tp2935
a(g1749
S'Nicolas Winding Refn'
p2936
tp2937
a(g1749
S'Christian E. Christiansen'
p2938
tp2939
a(g1749
S'Steven Lisberger'
p2940
tp2941
a(g1749
S'Camille Delamarre'
p2942
tp2943
a(g1749
S'Neil Nightingale'
p2944
tp2945
a(g1749
S'Peter Landesman'
p2946
tp2947
a(g1749
S'Robert Lorenz'
p2948
tp2949
a(g1749
S'Jake Schreier'
p2950
tp2951
a(g1749
S'Daniel Barnz'
p2952
tp2953
a(g1749
S'Scott Speer'
p2954
tp2955
a(g1749
S'Todd Strauss-Schulson'
p2956
tp2957
a(g1749
S'Jeff Nichols'
p2958
tp2959
a(g1749
S'Douglas McGrath'
p2960
tp2961
a(g1749
S'Mark Romanek'
p2962
tp2963
a(g1749
S'Ari Sandel'
p2964
tp2965
a(g1749
S'Drew Dowdle'
p2966
tp2967
a(g1749
S'Allen Coulter'
p2968
tp2969
a(g1749
S'Gene Wilder'
p2970
tp2971
a(g1749
S'Dean Devlin'
p2972
tp2973
a(g1749
S'Jason Winer'
p2974
tp2975
a(g1749
S'Tomas Alfredson'
p2976
tp2977
a(g1749
S'Jim Jarmusch'
p2978
tp2979
a(g1749
S'Joshua Michael Stern'
p2980
tp2981
a(g1749
S'Adam Brooks'
p2982
tp2983
a(g1749
S'Susanna White'
p2984
tp2985
a(g1749
S'Jim Field Smith'
p2986
tp2987
a(g1749
S'Mark Tonderai'
p2988
tp2989
a(g1749
S'Joe Nussbaum'
p2990
tp2991
a(g1749
S'Philip Kaufman'
p2992
tp2993
a(g1749
S'Scott Frank'
p2994
tp2995
a(g1749
S'James Ponsoldt'
p2996
tp2997
a(g1749
S'Stephan Elliot'
p2998
tp2999
a(g1749
S'Lone Scherfig'
p3000
tp3001
a(g1749
S'Andrew Erwin'
p3002
tp3003
a(g1749
S'Jon Erwin'
p3004
tp3005
a(g1749
S'J.A. Bayona'
p3006
tp3007
a(g1749
S'Juan Carlos Fresnadillo'
p3008
tp3009
a(g1749
S'Noah Baumbach'
p3010
tp3011
a(g1749
S'Ed Harris'
p3012
tp3013
a(g1749
S'Greg Coolidge'
p3014
tp3015
a(g1749
S'David Gelb'
p3016
tp3017
a(g1749
S'Whit Stillman'
p3018
tp3019
a(g1749
S'Jesse Peretz'
p3020
tp3021
a(g1749
S'Peter Medak'
p3022
tp3023
a(g1749
S'Jessica Bendinger'
p3024
tp3025
a(g1749
S'Leon Ichaso'
p3026
tp3027
a(g1749
S'Lisa Cholodenko'
p3028
tp3029
a(g1749
S'Tom Gormican'
p3030
tp3031
a(g1749
S'Craig Mazin'
p3032
tp3033
a(g1749
S'Andrew J. Cohen'
p3034
tp3035
a(g1749
S'Alex Garland'
p3036
tp3037
a(g1749
S'Gary McKendry'
p3038
tp3039
a(g1749
S'Erik White'
p3040
tp3041
a(g1749
S'Joseph Gordon-Levitt'
p3042
tp3043
a(g1749
S'John Gray'
p3044
tp3045
a(g1749
S'Troy Nixey'
p3046
tp3047
a(g1749
S'Christian Alvart'
p3048
tp3049
a(g1749
S'Alister Grierson'
p3050
tp3051
a(g1749
S'Ice Cube'
p3052
tp3053
a(g1749
S'Wally Pfister'
p3054
tp3055
a(g1749
S'Uwe Boll'
p3056
tp3057
a(g1749
S'Don Scardino'
p3058
tp3059
a(g1749
S'Mark Brown'
p3060
tp3061
a(g1749
S'Justin Zackham'
p3062
tp3063
a(g1749
S'Chris Gorak'
p3064
tp3065
a(g1749
S'Richard Glatzer'
p3066
tp3067
a(g1749
S'Wash Westmoreland'
p3068
tp3069
a(g1749
S'Robert Duvall'
p3070
tp3071
a(g1749
S'Michael Winterbottom'
p3072
tp3073
a(g1749
S'Nick Hurran'
p3074
tp3075
a(g1749
S'James D. Stern'
p3076
tp3077
a(g1749
S'Nanette Burstein'
p3078
tp3079
a(g1749
S'Tom Ford'
p3080
tp3081
a(g1749
S'Kurt Wimmer'
p3082
tp3083
a(g1749
S'Sean Penn'
p3084
tp3085
a(g1749
S'Andrew Dominik'
p3086
tp3087
a(g1749
S'Stuart Beattie'
p3088
tp3089
a(g1749
S'Michael Goldenberg'
p3090
tp3091
a(g1749
S'Ross Katz'
p3092
tp3093
a(g1749
S'Asger Leth'
p3094
tp3095
a(g1749
S'Ricky Gervais'
p3096
tp3097
a(g1749
S'Dustin Hoffman'
p3098
tp3099
a(g1749
S'Greta Gerwig'
p3100
tp3101
a(g1749
S'Jorma Taccone'
p3102
tp3103
a(g1749
S'Werner Herzog'
p3104
tp3105
a(g1749
S'Rob Hardy'
p3106
tp3107
a(g1749
S'Jeff Schaffer'
p3108
tp3109
a(g1749
S'Michael J. Bassett'
p3110
tp3111
a(g1749
S'Vincenzo Natali'
p3112
tp3113
a(g1749
S'J.C. Chandor'
p3114
tp3115
a(g1749
S'Pablo Larrain'
p3116
tp3117
a(g1749
S'Wayne Kramer'
p3118
tp3119
a(g1749
S'Susannah Grant'
p3120
tp3121
a(g1749
S'Ed Gass-Donnelly'
p3122
tp3123
a(g1749
S'Michael Haneke'
p3124
tp3125
a(g1749
S'Trish Sie'
p3126
tp3127
a(g1749
S'Stanley Tucci'
p3128
tp3129
a(g1749
S'Alejandro Monteverde'
p3130
tp3131
a(g1749
S'Marcus Dunstan'
p3132
tp3133
a(g1749
S'Vic Armstrong'
p3134
tp3135
a(g1749
S'Mark Mylod'
p3136
tp3137
a(g1749
S'Cary Fukunaga'
p3138
tp3139
a(g1749
S'David Palmer'
p3140
tp3141
a(g1749
S'Julian Schnabel'
p3142
tp3143
a(g1749
S'Wong Kar Wai'
p3144
tp3145
a(g1749
S'Drew Barrymore'
p3146
tp3147
a(g1749
S'Jee-woon Kim'
p3148
tp3149
a(g1749
S'Benh Zeitlin'
p3150
tp3151
a(g1749
S'Mike Mills'
p3152
tp3153
a(g1749
S'Laura Lau'
p3154
tp3155
a(g1749
S'Akiva Goldsman'
p3156
tp3157
a(g1749
S'John Curran'
p3158
tp3159
a(g1749
S'Adam Rifkin'
p3160
tp3161
a(g1749
S'Jay Duplass'
p3162
tp3163
a(g1749
S'Mark Duplass'
p3164
tp3165
a(g1749
S'Brian Koppelman'
p3166
tp3167
a(g1749
S'David Levien'
p3168
tp3169
a(g1749
S'Heitor Dhalia'
p3170
tp3171
a(g1749
S'Brian Klugman'
p3172
tp3173
a(g1749
S'Lee Sternthal'
p3174
tp3175
a(g1749
S'Denise Di Novi'
p3176
tp3177
a(g1749
S'Lorene Scafaria'
p3178
tp3179
a(g1749
S'Michael Roskam'
p3180
tp3181
a(g1749
S'Michael Dowse'
p3182
tp3183
a(g1749
S'Ryan Fleck'
p3184
tp3185
a(g1749
S'Errol Morris'
p3186
tp3187
a(g1749
S'Todd Solondz'
p3188
tp3189
a(g1749
S'Jason Dean Hall'
p3190
tp3191
a(g1749
S'Josh Schwartz'
p3192
tp3193
a(g1749
S'Sylvain Chomet'
p3194
tp3195
a(g1749
S'Benson Lee'
p3196
tp3197
a(g1749
S'John Michael McDonagh'
p3198
tp3199
a(g1749
S'John Pogue'
p3200
tp3201
a(g1749
S'Dan St. Pierre'
p3202
tp3203
a(g1749
S'Jason Bateman'
p3204
tp3205
a(g1749
S'Nicholas Jarecki'
p3206
tp3207
a(g1749
S'Anna Boden'
p3208
tp3209
a(g1749
S'Tommy Lee Jones'
p3210
tp3211
a(g1749
S'Sarah Polley'
p3212
tp3213
a(g1749
S'John Cameron Mitchell'
p3214
tp3215
a(g1749
S'Charlie Kaufman'
p3216
tp3217
a(g1749
S'Atom Egoyan'
p3218
tp3219
a(g1749
S'Gareth Evans'
p3220
tp3221
a(g1749
S'Sacha Gervasi'
p3222
tp3223
a(g1749
S'Debra Granik'
p3224
tp3225
a(g1749
S'David Schwimmer'
p3226
tp3227
a(g1749
S'Marc Abraham'
p3228
tp3229
a(g1749
S'Craig Johnson'
p3230
tp3231
a(g1749
S'Gilbert Adler'
p3232
tp3233
a(g1749
S'Charles Ferguson'
p3234
tp3235
a(g1749
S'Pieter Jan Brugge'
p3236
tp3237
a(g1749
S'George Hickenlooper'
p3238
tp3239
a(g1749
S'Dean Wright'
p3240
tp3241
a(g1749
S'Sngmoo Lee'
p3242
tp3243
a(g1749
S'Dan Fogelman'
p3244
tp3245
a(g1749
S'Diego Luna'
p3246
tp3247
a(g1749
S'Jacques Audiard'
p3248
tp3249
a(g1749
S'Richard Wenk'
p3250
tp3251
a(g1749
S'Jez Butterworth'
p3252
tp3253
a(g1749
S'Julie Delpy'
p3254
tp3255
a(g1749
S'Todd Lincoln'
p3256
tp3257
a(g1749
S'Philippe Falardeau'
p3258
tp3259
a(g1749
S'Miranda July'
p3260
tp3261
a(g1749
S'Russell Crowe'
p3262
tp3263
a(g1749
S'Gillian Robespierre'
p3264
tp3265
a(g1749
S'Helen Hunt'
p3266
tp3267
a(g1749
S'Andrew Jarecki'
p3268
tp3269
a(g1749
S'Mike White'
p3270
tp3271
a(g1749
S'Xavier Dolan'
p3272
tp3273
a(g1749
S'Jeremy Saulnier'
p3274
tp3275
a(g1749
S'Rowan Joffe'
p3276
tp3277
a(g1749
S'Kelly Reichardt'
p3278
tp3279
a(g1749
S'Christopher Hampton'
p3280
tp3281
a(g1749
S'Lake Bell'
p3282
tp3283
a(g1749
S'Lynn Shelton'
p3284
tp3285
a(g1749
S'Damian Szifron'
p3286
tp3287
a(g1749
S'Clark Gregg'
p3288
tp3289
a(g1749
S'Keith Gordon'
p3290
tp3291
a(g1749
S'Dustin Marcellino'
p3292
tp3293
a(g1749
S'Robert B. Weide'
p3294
tp3295
a(g1749
S'Gregory Levasseur'
p3296
tp3297
a(g1749
S'Vincent Gallo'
p3298
tp3299
a(g1749
S'Zal Batmanglij'
p3300
tp3301
a(g1749
S'Dan Ireland'
p3302
tp3303
a(g1749
S'Don Cheadle'
p3304
tp3305
a(g1749
S'James Vanderbilt'
p3306
tp3307
a(g1749
S'Claire Denis'
p3308
tp3309
a(g1749
S'Eran Creevy'
p3310
tp3311
a(g1749
S'David Hare'
p3312
tp3313
a(g1749
S'Oren Moverman'
p3314
tp3315
a(g1749
S'Lynne Ramsay'
p3316
tp3317
a(g1749
S'David Michod'
p3318
tp3319
a(g1749
S'Tom DiCillo'
p3320
tp3321
a(g1749
S'Joseph Cedar'
p3322
tp3323
a(g1749
S'Gregg Araki'
p3324
tp3325
a(g1749
S'Jonas Cuaron'
p3326
tp3327
a(g1749
S'Ralph Fiennes'
p3328
tp3329
a(g1749
S'Adam Del Deo'
p3330
tp3331
a(g1749
S'James Franco'
p3332
tp3333
a(g1749
S'Steven Knight'
p3334
tp3335
a(g1749
S'Gaspar Noe'
p3336
tp3337
a(g1749
S'Mike Cahill'
p3338
tp3339
a(g1749
S'Leslye Headland'
p3340
tp3341
a(g1749
S'Chris Terrio'
p3342
tp3343
a(g1749
S'Bob Yari'
p3344
tp3345
a(g1749
S'Rodrigo Cortes'
p3346
tp3347
a(g1749
S'Jim Wilson'
p3348
tp3349
a(g1749
S'John Krasinski'
p3350
tp3351
a(g1749
S'Michael Mayer'
p3352
tp3353
a(g1749
S'Joe Cornish'
p3354
tp3355
a(g1749
S'Prabhu Dheva'
p3356
tp3357
a(g1749
S'Paul Newman'
p3358
tp3359
a(g1749
S'Vera Farmiga'
p3360
tp3361
a(g1749
S'Kirby Dick'
p3362
tp3363
a(g1749
S'William Nicholson'
p3364
tp3365
a(g1749
S'Ethan Hawke'
p3366
tp3367
a(g1749
S'Azazel Jacobs'
p3368
tp3369
a(g1749
S'Jacob Aaron Estes'
p3370
tp3371
a(g1749
S'Sebasti\xc3\xa1n Silva'
p3372
tp3373
a(g1749
S'David Chase'
p3374
tp3375
a(g1749
S'Madonna'
p3376
tp3377
a(g1749
S'Ned Benson'
p3378
tp3379
a(g1749
S'Shane Salerno'
p3380
tp3381
a(g1749
S'James Keach'
p3382
tp3383
a(g1749
S'Natalie Portman'
p3384
tp3385
a(g1749
S'Alan Rickman'
p3386
tp3387
a(g1749
S'Ewan McGregor'
p3388
tp3389
a(g1749
S'Josh Radnor'
p3390
tp3391
a(g1749
S'Philip Seymour Hoffman'
p3392
tp3393
a(g1749
S'Joe Swanberg'
p3394
tp3395
a(g1749
S'Hossein Amini'
p3396
tp3397
a(g1749
S'Andy Serkis'
p3398
tp3399
a(g1749
S'Bobcat Goldthwait'
p3400
tp3401
a(g1749
S'Roman Coppola'
p3402
tp3403
a(g1749
S'Casey Affleck'
p3404
tp3405
a(g1749
S'Steve Conrad'
p3406
tp3407
a(g1749
S'Alex Ross Perry'
p3408
tp3409
a(g1749
S'David Duchovny'
p3410
tp3411
a(g1749
S'Spencer Susser'
p3412
tp3413
a(g1749
S'Danny Strong'
p3414
tp3415
a(g1749
S'Ti West'
p3416
tp3417
a(g1749
S'Michael Keaton'
p3418
tp3419
a(g1749
S'John Ridley'
p3420
tp3421
a(g1749
S'Josh Sternfeld'
p3422
tp3423
a(g1749
S'Demetri Martin'
p3424
tp3425
a(g1749
S'Jeremy Brock'
p3426
tp3427
a(g1749
S'Robert D. Siegel'
p3428
tp3429
a(g1749
S'Guillermo Arriaga'
p3430
tp3431
a(g1749
S'Dan Harris'
p3432
tp3433
a(g1749
S'Mike Myers'
p3434
tp3435
a(g1749
S'Ed Solomon'
p3436
tp3437
a(g1749
S'Jamie Linden'
p3438
tp3439
a(g1749
S'Jordan Roberts'
p3440
tp3441
a(g1749
S'Edward Burns'
p3442
tp3443
a(g1749
S'John Slattery'
p3444
tp3445
a(g1749
S'Zak Penn'
p3446
tp3447
a(g1749
S'Malcolm Venville'
p3448
tp3449
a(g1749
S'Jackie Chan'
p3450
tp3451
a(g1749
S'Luke Wilson'
p3452
tp3453
a(g1749
S'Kiefer Sutherland'
p3454
tp3455
a(g1749
S'Keanu Reeves'
p3456
tp3457
a(g1749
S'Kevin Bacon'
p3458
tp3459
a(g1749
S'Tim Allen'
p3460
tp3461
a(g1749
S'Don Hahn'
p3462
tp3463
a(g1749
S'Anthony Hopkins'
p3464
tp3465
a(g1749
S'John August'
p3466
tp3467
a(g1749
S'Melisa Wallack'
p3468
tp3469
a(g1749
S'William H. Macy'
p3470
tp3471
a(g1749
S'Peter Tolan'
p3472
tp3473
a(g1749
S'Goro Miyazaki'
p3474
tp3475
a(g1749
S'Ryan Gosling'
p3476
tp3477
a(g1749
S'Melanie Laurent'
p3478
tp3479
a(g1749
S'Matthew Lillard'
p3480
tp3481
a(g1749
S'Chris Evans'
p3482
tp3483
a(g1749
S'Nicolas Cage'
p3484
tp3485
a(g1749
S'William Monahan'
p3486
tp3487
a(g1749
S'Geoffrey Fletcher'
p3488
tp3489
a(g1749
S'Lonzo Nzekwe'
p3490
tp3491
a(g1749
S'Billy Bob Thornton'
p3492
tp3493
a(g1749
S'Stewart Wade'
p3494
tp3495
a(g1749
S'Mark Ruffalo'
p3496
tp3497
a(g1749
S'Michele Mulroney'
p3498
tp3499
a(g1749
S'Kieran Mulroney'
p3500
tp3501
a(g1749
S'Dustin Lance Black'
p3502
tp3503
a(g1749
S'Ryan Piers Williams'
p3504
tp3505
a(g1749
S'Ernie Barbarash'
p3506
tp3507
a(g1749
S'Nia Vardalos'
p3508
tp3509
a(g1749
S'Courteney Cox'
p3510
tp3511
a(g1749
S'Thomas Lennon & Ben Garant'
p3512
tp3513
a(g1749
S'Famke Janssen'
p3514
tp3515
a(S'rating'
p3516
g3516
tp3517
a.