(lp0
S'Sci-Fi'
p1
aS'Crime'
p2
aS'Romance'
p3
aS'Animation'
p4
aS'Music'
p5
aS'Adult'
p6
aS'Comedy'
p7
aS'War'
p8
aS'Horror'
p9
aS'Film-Noir'
p10
aS'Western'
p11
aS'News'
p12
aS'Reality-TV'
p13
aS'Thriller'
p14
aS'Adventure'
p15
aS'Mystery'
p16
aS'Short'
p17
aS'Talk-Show'
p18
aS'Drama'
p19
aS'Action'
p20
aS'Documentary'
p21
aS'Musical'
p22
aS'History'
p23
aS'Family'
p24
aS'Fantasy'
p25
aS'Game-Show'
p26
aS'Sport'
p27
aS'Biography'
p28
a.