ccollections
defaultdict
p0
(c__builtin__
list
p1
tp2
Rp3
S'FCP'
p4
(lp5
cnumpy.core.multiarray
scalar
p6
(cnumpy
dtype
p7
(S'f8'
p8
I0
I1
tp9
Rp10
(I3
S'<'
p11
NNNI-1
I-1
I0
tp12
bS')\x13\x94\xc0\xa0S\xe6?'
p13
tp14
Rp15
ag6
(g10
S'\x9a3\x8a\x00\x1f\xc6\xe6?'
p16
tp17
Rp18
ag6
(g10
S's\xde(\xfd\x1d\xc9\xe6?'
p19
tp20
Rp21
ag6
(g10
S'Xh\xfa\xb3$`\xe6?'
p22
tp23
Rp24
ag6
(g10
S'\xee\x90\xf1\xc2\x86\xc4\xe6?'
p25
tp26
Rp27
ag6
(g10
S' \x1dxD\xd6\xc0\xe6?'
p28
tp29
Rp30
ag6
(g10
S'n(<\xc0"l\xe6?'
p31
tp32
Rp33
ag6
(g10
S'=E\xfbb\xf5\xd7\xe6?'
p34
tp35
Rp36
ag6
(g10
S'Vx\xd4\xc1\xd1\xd8\xe6?'
p37
tp38
Rp39
ag6
(g10
S'\xa1 H\x9c\xc0m\xe6?'
p40
tp41
Rp42
ag6
(g10
S'Z\xd2\xa9\xe7y\xdd\xe6?'
p43
tp44
Rp45
ag6
(g10
S'\x95\x81\xf5\x8b\xb5\xdc\xe6?'
p46
tp47
Rp48
ag6
(g10
S'X4\x0c\xf7\xe5x\xe6?'
p49
tp50
Rp51
ag6
(g10
S'\xf0\x8as%\xcc\xdc\xe6?'
p52
tp53
Rp54
ag6
(g10
S'e\xeb8\x93q\xe2\xe6?'
p55
tp56
Rp57
ag6
(g10
S'\xb8\x97N<\x0ex\xe6?'
p58
tp59
Rp60
ag6
(g10
S'~\xa9\x80\x91\x1a\xe6\xe6?'
p61
tp62
Rp63
ag6
(g10
S'z\x8a\xdd\xd5o\xdf\xe6?'
p64
tp65
Rp66
ag6
(g10
S'\x9f\xffN\xa5q\x81\xe6?'
p67
tp68
Rp69
ag6
(g10
S'\xea\x97\x03\x8e\xd2\xe5\xe6?'
p70
tp71
Rp72
ag6
(g10
S'\x0ewm\r\x83\xe5\xe6?'
p73
tp74
Rp75
ag6
(g10
S'\xa3\xb2E\x04n\x80\xe6?'
p76
tp77
Rp78
ag6
(g10
S'\xec\xad\x1c2\xf2\xe5\xe6?'
p79
tp80
Rp81
ag6
(g10
S'_\xdc0\xf9\x1e\xe9\xe6?'
p82
tp83
Rp84
ag6
(g10
S'\x965 \xfc\x1e\x94\xe6?'
p85
tp86
Rp87
ag6
(g10
S'\x98\x93\x88r\x0f\xf0\xe6?'
p88
tp89
Rp90
ag6
(g10
S'\xb0\x19\x00\x1b\xa0\xe2\xe6?'
p91
tp92
Rp93
asS'MAE'
p94
(lp95
g6
(g10
S'-\x80\xf4@\xe1x\xe8?'
p96
tp97
Rp98
ag6
(g10
S';\xd1\xc9-P\xb2\xe7?'
p99
tp100
Rp101
ag6
(g10
S'\xcc`\x81d\xbf\x92\xe7?'
p102
tp103
Rp104
ag6
(g10
S'v&B\xaf;q\xe8?'
p105
tp106
Rp107
ag6
(g10
S'\x0c\xefq\xc7\xbc\xac\xe7?'
p108
tp109
Rp110
ag6
(g10
S'\xd9\xf1,\xd0T\x97\xe7?'
p111
tp112
Rp113
ag6
(g10
S'\x96%\xd4-\xcek\xe8?'
p114
tp115
Rp116
ag6
(g10
S'\xaa\x0c.\xdf\xbf\xab\xe7?'
p117
tp118
Rp119
ag6
(g10
S'\x8d\xcfS\xd9\xa1\x98\xe7?'
p120
tp121
Rp122
ag6
(g10
S'\x13 \xb2C\x1ei\xe8?'
p123
tp124
Rp125
ag6
(g10
S'\xf7\xd7\x9dW\x0e\xad\xe7?'
p126
tp127
Rp128
ag6
(g10
S'<\x8d\xd3\x88\x00\x9f\xe7?'
p129
tp130
Rp131
ag6
(g10
S'\xec\xc5A@xk\xe8?'
p132
tp133
Rp134
ag6
(g10
S'E]\x9a\xfc\xe5\xb1\xe7?'
p135
tp136
Rp137
ag6
(g10
S'\xbb>\x9a\x08!\x9d\xe7?'
p138
tp139
Rp140
ag6
(g10
S'U\xdb\x1bS\xcdk\xe8?'
p141
tp142
Rp143
ag6
(g10
S'\xbd\xf9\x15-X\xac\xe7?'
p144
tp145
Rp146
ag6
(g10
S'\xd6b\xb3\x08\x83\x9f\xe7?'
p147
tp148
Rp149
ag6
(g10
S'\x07\x05i\xe9\xa2n\xe8?'
p150
tp151
Rp152
ag6
(g10
S'\x87fM\xfb\xe7\xb1\xe7?'
p153
tp154
Rp155
ag6
(g10
S'R\xaa)\xe4v\x9f\xe7?'
p156
tp157
Rp158
ag6
(g10
S'e\xb4\xfa\xceku\xe8?'
p159
tp160
Rp161
ag6
(g10
S'=\xe5?\xb5A\xb7\xe7?'
p162
tp163
Rp164
ag6
(g10
S'\xb9\x05\x90\x92\x87\xa0\xe7?'
p165
tp166
Rp167
ag6
(g10
S'\x95.\x00\xaa\x00o\xe8?'
p168
tp169
Rp170
ag6
(g10
S'\xb0\x8d@\xa4m\xb7\xe7?'
p171
tp172
Rp173
ag6
(g10
S'[\xa0\xf45p\xaa\xe7?'
p174
tp175
Rp176
asS'biased'
p177
(lp178
I00
aI00
aI00
aI00
aI00
aI00
aI00
aI00
aI00
aI00
aI00
aI00
aI00
aI00
aI00
aI00
aI00
aI00
aI00
aI00
aI00
aI00
aI00
aI00
aI00
aI00
aI00
asS'RMSE'
p179
(lp180
g6
(g10
S'\x08\x05V=:\xe7\xee?'
p181
tp182
Rp183
ag6
(g10
S'\x98\xc1\xcc\xc0\xc1\xde\xed?'
p184
tp185
Rp186
ag6
(g10
S'*\x08\xf3\xdb\xc2\xd0\xed?'
p187
tp188
Rp189
ag6
(g10
S'\x8d$[;<\xdc\xee?'
p190
tp191
Rp192
ag6
(g10
S'+\xb5\xef\x93o\xd9\xed?'
p193
tp194
Rp195
ag6
(g10
S'\xb54\xefN.\xce\xed?'
p196
tp197
Rp198
ag6
(g10
S'\x85.M\xb7\xeb\xd5\xee?'
p199
tp200
Rp201
ag6
(g10
S'U\xcc\xcc\xc3\x1e\xd9\xed?'
p202
tp203
Rp204
ag6
(g10
S'\xc2\x97<x\xdb\xcc\xed?'
p205
tp206
Rp207
ag6
(g10
S'\x1a\xf3M\xa5\xf9\xd1\xee?'
p208
tp209
Rp210
ag6
(g10
S'\xbd\xe7\xde\xbe\xc4\xd7\xed?'
p211
tp212
Rp213
ag6
(g10
S'\xab\xcfDT\xf4\xcc\xed?'
p214
tp215
Rp216
ag6
(g10
S'\xcb \xcb\x04\x8e\xd2\xee?'
p217
tp218
Rp219
ag6
(g10
S'\xa2B{\xfa\x97\xe0\xed?'
p220
tp221
Rp222
ag6
(g10
S'jZ|\xc7(\xca\xed?'
p223
tp224
Rp225
ag6
(g10
S'\xceR\xa4L\xfc\xd7\xee?'
p226
tp227
Rp228
ag6
(g10
S'\x8e0w\xcbn\xd7\xed?'
p229
tp230
Rp231
ag6
(g10
S'\xa6\xcb\xa7\xa8)\xcb\xed?'
p232
tp233
Rp234
ag6
(g10
S'\x8d\x8d\xa9\xc5\xd1\xd7\xee?'
p235
tp236
Rp237
ag6
(g10
S'\xe0\x07\xabzy\xdd\xed?'
p238
tp239
Rp240
ag6
(g10
S'\xfd{V\xb5\xfd\xca\xed?'
p241
tp242
Rp243
ag6
(g10
S'\x93]i\xc0\xc2\xda\xee?'
p244
tp245
Rp246
ag6
(g10
S'\x9e\xa3\xe4g\x05\xe4\xed?'
p247
tp248
Rp249
ag6
(g10
S'\xa3\xa3(\xbeO\xcc\xed?'
p250
tp251
Rp252
ag6
(g10
S'\n\xb6\xe2l\xaf\xd5\xee?'
p253
tp254
Rp255
ag6
(g10
S'\x1e\xb0\x1chA\xe2\xed?'
p256
tp257
Rp258
ag6
(g10
S'\xe6\xfb\x7f0\xfa\xd5\xed?'
p259
tp260
Rp261
asVparams
p262
(lp263
(dp264
S'reg_all'
p265
F0.1
sS'n_factors'
p266
I20
sg177
I00
sS'n_epochs'
p267
I20
sa(dp268
g265
F0.1
sg266
I20
sg177
I00
sg267
I50
sa(dp269
g265
F0.1
sg266
I20
sg177
I00
sg267
I100
sa(dp270
g265
F0.1
sg266
I30
sg177
I00
sg267
I20
sa(dp271
g265
F0.1
sg266
I30
sg177
I00
sg267
I50
sa(dp272
g265
F0.1
sg266
I30
sg177
I00
sg267
I100
sa(dp273
g265
F0.1
sg266
I40
sg177
I00
sg267
I20
sa(dp274
g265
F0.1
sg266
I40
sg177
I00
sg267
I50
sa(dp275
g265
F0.1
sg266
I40
sg177
I00
sg267
I100
sa(dp276
g265
F0.1
sg266
I50
sg177
I00
sg267
I20
sa(dp277
g265
F0.1
sg266
I50
sg177
I00
sg267
I50
sa(dp278
g265
F0.1
sg266
I50
sg177
I00
sg267
I100
sa(dp279
g265
F0.1
sg266
I60
sg177
I00
sg267
I20
sa(dp280
g265
F0.1
sg266
I60
sg177
I00
sg267
I50
sa(dp281
g265
F0.1
sg266
I60
sg177
I00
sg267
I100
sa(dp282
g265
F0.1
sg266
I70
sg177
I00
sg267
I20
sa(dp283
g265
F0.1
sg266
I70
sg177
I00
sg267
I50
sa(dp284
g265
F0.1
sg266
I70
sg177
I00
sg267
I100
sa(dp285
g265
F0.1
sg266
I80
sg177
I00
sg267
I20
sa(dp286
g265
F0.1
sg266
I80
sg177
I00
sg267
I50
sa(dp287
g265
F0.1
sg266
I80
sg177
I00
sg267
I100
sa(dp288
g265
F0.1
sg266
I90
sg177
I00
sg267
I20
sa(dp289
g265
F0.1
sg266
I90
sg177
I00
sg267
I50
sa(dp290
g265
F0.1
sg266
I90
sg177
I00
sg267
I100
sa(dp291
g265
F0.1
sg266
I100
sg177
I00
sg267
I20
sa(dp292
g265
F0.1
sg266
I100
sg177
I00
sg267
I50
sa(dp293
g265
F0.1
sg266
I100
sg177
I00
sg267
I100
sasVscores
p294
(lp295
(dp296
g4
g15
sg94
g98
sg179
g183
sa(dp297
g4
g18
sg94
g101
sg179
g186
sa(dp298
g4
g21
sg94
g104
sg179
g189
sa(dp299
g4
g24
sg94
g107
sg179
g192
sa(dp300
g4
g27
sg94
g110
sg179
g195
sa(dp301
g4
g30
sg94
g113
sg179
g198
sa(dp302
g4
g33
sg94
g116
sg179
g201
sa(dp303
g4
g36
sg94
g119
sg179
g204
sa(dp304
g4
g39
sg94
g122
sg179
g207
sa(dp305
g4
g42
sg94
g125
sg179
g210
sa(dp306
g4
g45
sg94
g128
sg179
g213
sa(dp307
g4
g48
sg94
g131
sg179
g216
sa(dp308
g4
g51
sg94
g134
sg179
g219
sa(dp309
g4
g54
sg94
g137
sg179
g222
sa(dp310
g4
g57
sg94
g140
sg179
g225
sa(dp311
g4
g60
sg94
g143
sg179
g228
sa(dp312
g4
g63
sg94
g146
sg179
g231
sa(dp313
g4
g66
sg94
g149
sg179
g234
sa(dp314
g4
g69
sg94
g152
sg179
g237
sa(dp315
g4
g72
sg94
g155
sg179
g240
sa(dp316
g4
g75
sg94
g158
sg179
g243
sa(dp317
g4
g78
sg94
g161
sg179
g246
sa(dp318
g4
g81
sg94
g164
sg179
g249
sa(dp319
g4
g84
sg94
g167
sg179
g252
sa(dp320
g4
g87
sg94
g170
sg179
g255
sa(dp321
g4
g90
sg94
g173
sg179
g258
sa(dp322
g4
g93
sg94
g176
sg179
g261
sasg265
(lp323
F0.1
aF0.1
aF0.1
aF0.1
aF0.1
aF0.1
aF0.1
aF0.1
aF0.1
aF0.1
aF0.1
aF0.1
aF0.1
aF0.1
aF0.1
aF0.1
aF0.1
aF0.1
aF0.1
aF0.1
aF0.1
aF0.1
aF0.1
aF0.1
aF0.1
aF0.1
aF0.1
asg266
(lp324
I20
aI20
aI20
aI30
aI30
aI30
aI40
aI40
aI40
aI50
aI50
aI50
aI60
aI60
aI60
aI70
aI70
aI70
aI80
aI80
aI80
aI90
aI90
aI90
aI100
aI100
aI100
as.